ccopy_reg
_reconstructor
p0
(cKicad_action_plugins.save_restore_layout.save_restore_layout
LayoutData
p1
c__builtin__
tuple
p2
(V(kicad_pcb (version 20171130) (host pcbnew "(5.1.9-0-10_14)")\u000a\u000a  (general\u000a    (thickness 1.6)\u000a    (drawings 8)\u000a    (tracks 365)\u000a    (zones 0)\u000a    (modules 24)\u000a    (nets 20)\u000a  )\u000a\u000a  (page A4)\u000a  (layers\u000a    (0 F.Cu signal)\u000a    (31 B.Cu signal)\u000a    (32 B.Adhes user)\u000a    (33 F.Adhes user)\u000a    (34 B.Paste user)\u000a    (35 F.Paste user)\u000a    (36 B.SilkS user)\u000a    (37 F.SilkS user)\u000a    (38 B.Mask user)\u000a    (39 F.Mask user)\u000a    (40 Dwgs.User user)\u000a    (41 Cmts.User user)\u000a    (42 Eco1.User user)\u000a    (43 Eco2.User user)\u000a    (44 Edge.Cuts user)\u000a    (45 Margin user)\u000a    (46 B.CrtYd user)\u000a    (47 F.CrtYd user)\u000a    (48 B.Fab user)\u000a    (49 F.Fab user)\u000a  )\u000a\u000a  (setup\u000a    (last_trace_width 0.25)\u000a    (user_trace_width 0.35)\u000a    (user_trace_width 0.4)\u000a    (user_trace_width 0.5)\u000a    (trace_clearance 0.2)\u000a    (zone_clearance 0.508)\u000a    (zone_45_only no)\u000a    (trace_min 0.2)\u000a    (via_size 0.8)\u000a    (via_drill 0.4)\u000a    (via_min_size 0.4)\u000a    (via_min_drill 0.3)\u000a    (uvia_size 0.3)\u000a    (uvia_drill 0.1)\u000a    (uvias_allowed no)\u000a    (uvia_min_size 0.2)\u000a    (uvia_min_drill 0.1)\u000a    (edge_width 0.05)\u000a    (segment_width 0.2)\u000a    (pcb_text_width 0.3)\u000a    (pcb_text_size 1.5 1.5)\u000a    (mod_edge_width 0.12)\u000a    (mod_text_size 1 1)\u000a    (mod_text_width 0.15)\u000a    (pad_size 1.524 1.524)\u000a    (pad_drill 0.762)\u000a    (pad_to_mask_clearance 0)\u000a    (aux_axis_origin 0 0)\u000a    (visible_elements FFFFFF7F)\u000a    (pcbplotparams\u000a      (layerselection 0x010fc_ffffffff)\u000a      (usegerberextensions false)\u000a      (usegerberattributes true)\u000a      (usegerberadvancedattributes true)\u000a      (creategerberjobfile true)\u000a      (excludeedgelayer true)\u000a      (linewidth 0.100000)\u000a      (plotframeref false)\u000a      (viasonmask false)\u000a      (mode 1)\u000a      (useauxorigin false)\u000a      (hpglpennumber 1)\u000a      (hpglpenspeed 20)\u000a      (hpglpendiameter 15.000000)\u000a      (psnegative false)\u000a      (psa4output false)\u000a      (plotreference true)\u000a      (plotvalue true)\u000a      (plotinvisibletext false)\u000a      (padsonsilk false)\u000a      (subtractmaskfromsilk false)\u000a      (outputformat 1)\u000a      (mirror false)\u000a      (drillshape 1)\u000a      (scaleselection 1)\u000a      (outputdirectory ""))\u000a  )\u000a\u000a  (net 0 "")\u000a  (net 1 "Net-(D1-Pad2)")\u000a  (net 2 "Net-(D2-Pad2)")\u000a  (net 3 "Net-(D3-Pad2)")\u000a  (net 4 "Net-(D4-Pad2)")\u000a  (net 5 "Net-(D5-Pad2)")\u000a  (net 6 "Net-(D6-Pad2)")\u000a  (net 7 "Net-(D7-Pad2)")\u000a  (net 8 "Net-(D8-Pad2)")\u000a  (net 9 "Net-(D9-Pad2)")\u000a  (net 10 "Net-(D10-Pad2)")\u000a  (net 11 ROW-A)\u000a  (net 12 ROW-B)\u000a  (net 13 ROW-C)\u000a  (net 14 ROW-D)\u000a  (net 15 ROW-E)\u000a  (net 16 COL-A)\u000a  (net 17 COL-B)\u000a  (net 18 COL-C)\u000a  (net 19 COL-D)\u000a\u000a  (net_class Default "This is the default net class."\u000a    (clearance 0.2)\u000a    (trace_width 0.25)\u000a    (via_dia 0.8)\u000a    (via_drill 0.4)\u000a    (uvia_dia 0.3)\u000a    (uvia_drill 0.1)\u000a    (add_net COL-A)\u000a    (add_net COL-B)\u000a    (add_net COL-C)\u000a    (add_net COL-D)\u000a    (add_net "Net-(D1-Pad2)")\u000a    (add_net "Net-(D10-Pad2)")\u000a    (add_net "Net-(D2-Pad2)")\u000a    (add_net "Net-(D3-Pad2)")\u000a    (add_net "Net-(D4-Pad2)")\u000a    (add_net "Net-(D5-Pad2)")\u000a    (add_net "Net-(D6-Pad2)")\u000a    (add_net "Net-(D7-Pad2)")\u000a    (add_net "Net-(D8-Pad2)")\u000a    (add_net "Net-(D9-Pad2)")\u000a    (add_net ROW-A)\u000a    (add_net ROW-B)\u000a    (add_net ROW-C)\u000a    (add_net ROW-D)\u000a    (add_net ROW-E)\u000a  )\u000a\u000a  (module WingCustomParts:Kailh_socket_PG1350_optional_reversible_with_3d (layer F.Cu) (tedit 6146BD52) (tstamp 6147A337)\u000a    (at -14.25 40)\u000a    (descr "Kailh \u005c"Choc\u005c" PG1350 keyswitch with optional socket mount, reversible")\u000a    (tags kailh,choc)\u000a    (path /6147F031/614851D1)\u000a    (fp_text reference KSW10 (at 0 -8.89) (layer F.SilkS)\u000a      (effects (font (size 1 1) (thickness 0.15)))\u000a    )\u000a    (fp_text value Kailh-Switch (at 0 8.255) (layer F.Fab)\u000a      (effects (font (size 1 1) (thickness 0.15)))\u000a    )\u000a    (fp_line (start -7.5 7.5) (end -7.5 -7.5) (layer F.Fab) (width 0.15))\u000a    (fp_line (start 7.5 7.5) (end -7.5 7.5) (layer F.Fab) (width 0.15))\u000a    (fp_line (start 7.5 -7.5) (end 7.5 7.5) (layer F.Fab) (width 0.15))\u000a    (fp_line (start -7.5 -7.5) (end 7.5 -7.5) (layer F.Fab) (width 0.15))\u000a    (fp_line (start -7 -5) (end -9.5 -5) (layer F.Fab) (width 0.12))\u000a    (fp_line (start -7 -1.5) (end -7 -6.2) (layer F.Fab) (width 0.12))\u000a    (fp_line (start 1.5 -8.2) (end -1.5 -8.2) (layer F.Fab) (width 0.15))\u000a    (fp_line (start 2 -7.7) (end 1.5 -8.2) (layer F.Fab) (width 0.15))\u000a    (fp_line (start 1.5 -3.7) (end -1 -3.7) (layer F.Fab) (width 0.15))\u000a    (fp_line (start 2 -4.2) (end 1.5 -3.7) (layer F.Fab) (width 0.15))\u000a    (fp_line (start -7 -6.2) (end -2.5 -6.2) (layer F.Fab) (width 0.15))\u000a    (fp_line (start -2 -6.7) (end -2 -7.7) (layer F.Fab) (width 0.15))\u000a    (fp_line (start -1.5 -8.2) (end -2 -7.7) (layer F.Fab) (width 0.15))\u000a    (fp_line (start -2.5 -1.5) (end -7 -1.5) (layer F.Fab) (width 0.15))\u000a    (fp_line (start -2.5 -2.2) (end -2.5 -1.5) (layer F.Fab) (width 0.15))\u000a    (fp_line (start 2 -4.25) (end 2 -7.7) (layer F.Fab) (width 0.12))\u000a    (fp_line (start -9.5 -5) (end -9.5 -2.5) (layer F.Fab) (width 0.12))\u000a    (fp_line (start 4.5 -7.25) (end 2 -7.25) (layer F.Fab) (width 0.12))\u000a    (fp_line (start 4.5 -4.75) (end 4.5 -7.25) (layer F.Fab) (width 0.12))\u000a    (fp_line (start 2 -4.75) (end 4.5 -4.75) (layer F.Fab) (width 0.12))\u000a    (fp_line (start -9.5 -2.5) (end -7 -2.5) (layer F.Fab) (width 0.12))\u000a    (fp_line (start 7 -5) (end 9.5 -5) (layer B.Fab) (width 0.12))\u000a    (fp_line (start 7 -1.5) (end 7 -6.2) (layer B.Fab) (width 0.12))\u000a    (fp_line (start -1.5 -8.2) (end 1.5 -8.2) (layer B.Fab) (width 0.15))\u000a    (fp_line (start -2 -7.7) (end -1.5 -8.2) (layer B.Fab) (width 0.15))\u000a    (fp_line (start -1.5 -3.7) (end 1 -3.7) (layer B.Fab) (width 0.15))\u000a    (fp_line (start -2 -4.2) (end -1.5 -3.7) (layer B.Fab) (width 0.15))\u000a    (fp_line (start 7 -6.2) (end 2.5 -6.2) (layer B.Fab) (width 0.15))\u000a    (fp_line (start 2 -6.7) (end 2 -7.7) (layer B.Fab) (width 0.15))\u000a    (fp_line (start 1.5 -8.2) (end 2 -7.7) (layer B.Fab) (width 0.15))\u000a    (fp_line (start 2.5 -1.5) (end 7 -1.5) (layer B.Fab) (width 0.15))\u000a    (fp_line (start 2.5 -2.2) (end 2.5 -1.5) (layer B.Fab) (width 0.15))\u000a    (fp_line (start -2 -4.25) (end -2 -7.7) (layer B.Fab) (width 0.12))\u000a    (fp_line (start 9.5 -5) (end 9.5 -2.5) (layer B.Fab) (width 0.12))\u000a    (fp_line (start -4.5 -7.25) (end -2 -7.25) (layer B.Fab) (width 0.12))\u000a    (fp_line (start -4.5 -4.75) (end -4.5 -7.25) (layer B.Fab) (width 0.12))\u000a    (fp_line (start -2 -4.75) (end -4.5 -4.75) (layer B.Fab) (width 0.12))\u000a    (fp_line (start 9.5 -2.5) (end 7 -2.5) (layer B.Fab) (width 0.12))\u000a    (fp_line (start -2.5 -2.2) (end -2.5 -1.5) (layer F.SilkS) (width 0.15))\u000a    (fp_line (start -2.5 -1.5) (end -7 -1.5) (layer F.SilkS) (width 0.15))\u000a    (fp_line (start -1.5 -8.2) (end -2 -7.7) (layer F.SilkS) (width 0.15))\u000a    (fp_line (start -2 -6.7) (end -2 -7.7) (layer F.SilkS) (width 0.15))\u000a    (fp_line (start -7 -6.2) (end -2.5 -6.2) (layer F.SilkS) (width 0.15))\u000a    (fp_line (start 2 -4.2) (end 1.5 -3.7) (layer F.SilkS) (width 0.15))\u000a    (fp_line (start -7 -5.6) (end -7 -6.2) (layer F.SilkS) (width 0.15))\u000a    (fp_line (start 1.5 -3.7) (end -1 -3.7) (layer F.SilkS) (width 0.15))\u000a    (fp_line (start 2 -7.7) (end 1.5 -8.2) (layer F.SilkS) (width 0.15))\u000a    (fp_line (start 1.5 -8.2) (end -1.5 -8.2) (layer F.SilkS) (width 0.15))\u000a    (fp_line (start -7 -1.5) (end -7 -2) (layer F.SilkS) (width 0.15))\u000a    (fp_line (start 2.5 -2.2) (end 2.5 -1.5) (layer B.SilkS) (width 0.15))\u000a    (fp_line (start 2.5 -1.5) (end 7 -1.5) (layer B.SilkS) (width 0.15))\u000a    (fp_line (start 1.5 -8.2) (end 2 -7.7) (layer B.SilkS) (width 0.15))\u000a    (fp_line (start 2 -6.7) (end 2 -7.7) (layer B.SilkS) (width 0.15))\u000a    (fp_line (start 7 -6.2) (end 2.5 -6.2) (layer B.SilkS) (width 0.15))\u000a    (fp_line (start -2 -4.2) (end -1.5 -3.7) (layer B.SilkS) (width 0.15))\u000a    (fp_line (start 7 -5.6) (end 7 -6.2) (layer B.SilkS) (width 0.15))\u000a    (fp_line (start -1.5 -3.7) (end 1 -3.7) (layer B.SilkS) (width 0.15))\u000a    (fp_line (start -2 -7.7) (end -1.5 -8.2) (layer B.SilkS) (width 0.15))\u000a    (fp_line (start -1.5 -8.2) (end 1.5 -8.2) (layer B.SilkS) (width 0.15))\u000a    (fp_line (start 7 -1.5) (end 7 -2) (layer B.SilkS) (width 0.15))\u000a    (fp_line (start -7 -7) (end -6 -7) (layer B.SilkS) (width 0.15))\u000a    (fp_line (start -7 -6) (end -7 -7) (layer B.SilkS) (width 0.15))\u000a    (fp_line (start 7 -7) (end 7 -6) (layer B.SilkS) (width 0.15))\u000a    (fp_line (start 6 -7) (end 7 -7) (layer B.SilkS) (width 0.15))\u000a    (fp_line (start 7 6) (end 7 7) (layer B.SilkS) (width 0.15))\u000a    (fp_line (start 7 7) (end 6 7) (layer B.SilkS) (width 0.15))\u000a    (fp_line (start -7 7) (end -7 6) (layer B.SilkS) (width 0.15))\u000a    (fp_line (start -6 7) (end -7 7) (layer B.SilkS) (width 0.15))\u000a    (fp_line (start -7.5 7.5) (end -7.5 -7.5) (layer B.Fab) (width 0.15))\u000a    (fp_line (start 7.5 7.5) (end -7.5 7.5) (layer B.Fab) (width 0.15))\u000a    (fp_line (start 7.5 -7.5) (end 7.5 7.5) (layer B.Fab) (width 0.15))\u000a    (fp_line (start -7.5 -7.5) (end 7.5 -7.5) (layer B.Fab) (width 0.15))\u000a    (fp_line (start -6.9 6.9) (end -6.9 -6.9) (layer Eco2.User) (width 0.15))\u000a    (fp_line (start 6.9 -6.9) (end 6.9 6.9) (layer Eco2.User) (width 0.15))\u000a    (fp_line (start 6.9 -6.9) (end -6.9 -6.9) (layer Eco2.User) (width 0.15))\u000a    (fp_line (start -6.9 6.9) (end 6.9 6.9) (layer Eco2.User) (width 0.15))\u000a    (fp_line (start 7 -7) (end 7 -6) (layer F.SilkS) (width 0.15))\u000a    (fp_line (start 6 -7) (end 7 -7) (layer F.SilkS) (width 0.15))\u000a    (fp_line (start 7 7) (end 6 7) (layer F.SilkS) (width 0.15))\u000a    (fp_line (start 7 6) (end 7 7) (layer F.SilkS) (width 0.15))\u000a    (fp_line (start -7 7) (end -7 6) (layer F.SilkS) (width 0.15))\u000a    (fp_line (start -6 7) (end -7 7) (layer F.SilkS) (width 0.15))\u000a    (fp_line (start -7 -7) (end -6 -7) (layer F.SilkS) (width 0.15))\u000a    (fp_line (start -7 -6) (end -7 -7) (layer F.SilkS) (width 0.15))\u000a    (fp_line (start -2.6 -3.1) (end -2.6 -6.3) (layer Eco2.User) (width 0.15))\u000a    (fp_line (start 2.6 -6.3) (end -2.6 -6.3) (layer Eco2.User) (width 0.15))\u000a    (fp_line (start 2.6 -3.1) (end 2.6 -6.3) (layer Eco2.User) (width 0.15))\u000a    (fp_line (start -2.6 -3.1) (end 2.6 -3.1) (layer Eco2.User) (width 0.15))\u000a    (fp_arc (start 2.5 -6.7) (end 2 -6.7) (angle -90) (layer B.SilkS) (width 0.15))\u000a    (fp_arc (start 1 -2.2) (end 2.5 -2.2) (angle -90) (layer B.SilkS) (width 0.15))\u000a    (fp_arc (start -2.5 -6.7) (end -2 -6.7) (angle 90) (layer F.SilkS) (width 0.15))\u000a    (fp_arc (start -1 -2.2) (end -2.5 -2.2) (angle 90) (layer F.SilkS) (width 0.15))\u000a    (fp_arc (start 1 -2.2) (end 2.5 -2.2) (angle -90) (layer B.Fab) (width 0.15))\u000a    (fp_arc (start 2.5 -6.7) (end 2 -6.7) (angle -90) (layer B.Fab) (width 0.15))\u000a    (fp_text user %R (at 3 -5 180) (layer B.Fab)\u000a      (effects (font (size 1 1) (thickness 0.15)) (justify mirror))\u000a    )\u000a    (fp_arc (start -1 -2.2) (end -2.5 -2.2) (angle 90) (layer F.Fab) (width 0.15))\u000a    (fp_arc (start -2.5 -6.7) (end -2 -6.7) (angle 90) (layer F.Fab) (width 0.15))\u000a    (fp_text user %R (at -2.25 -4.75) (layer F.Fab)\u000a      (effects (font (size 1 1) (thickness 0.15)))\u000a    )\u000a    (fp_text user %R (at 0 -8.89) (layer B.SilkS)\u000a      (effects (font (size 1 1) (thickness 0.15)) (justify mirror))\u000a    )\u000a    (fp_text user %V (at 0 8.255) (layer B.Fab)\u000a      (effects (font (size 1 1) (thickness 0.15)) (justify mirror))\u000a    )\u000a    (pad 2 thru_hole circle (at -5 3.8) (size 2.032 2.032) (drill 1.27) (layers *.Cu *.Mask)\u000a      (net 17 COL-B))\u000a    (pad 2 smd rect (at 8.275 -3.75) (size 2.6 2.6) (layers B.Cu B.Paste B.Mask)\u000a      (net 17 COL-B))\u000a    (pad 1 smd rect (at -3.275 -5.95) (size 2.6 2.6) (layers B.Cu B.Paste B.Mask)\u000a      (net 9 "Net-(D9-Pad2)"))\u000a    (pad "" np_thru_hole circle (at 5 -3.75) (size 3 3) (drill 3) (layers *.Cu *.Mask))\u000a    (pad 2 smd rect (at -8.275 -3.75) (size 2.6 2.6) (layers F.Cu F.Paste F.Mask)\u000a      (net 17 COL-B))\u000a    (pad "" np_thru_hole circle (at 0 -5.95) (size 3 3) (drill 3) (layers *.Cu *.Mask))\u000a    (pad 1 thru_hole circle (at 0 5.9) (size 2.032 2.032) (drill 1.27) (layers *.Cu *.Mask)\u000a      (net 9 "Net-(D9-Pad2)"))\u000a    (pad 2 thru_hole circle (at 5 3.8) (size 2.032 2.032) (drill 1.27) (layers *.Cu *.Mask)\u000a      (net 17 COL-B))\u000a    (pad "" np_thru_hole circle (at 0 0) (size 3.429 3.429) (drill 3.429) (layers *.Cu *.Mask))\u000a    (pad "" np_thru_hole circle (at -5 -3.75) (size 3 3) (drill 3) (layers *.Cu *.Mask))\u000a    (pad 1 smd rect (at 3.275 -5.95) (size 2.6 2.6) (layers F.Cu F.Paste F.Mask)\u000a      (net 9 "Net-(D9-Pad2)"))\u000a    (pad "" np_thru_hole circle (at 5.5 0) (size 1.7018 1.7018) (drill 1.7018) (layers *.Cu *.Mask))\u000a    (pad "" np_thru_hole circle (at -5.5 0) (size 1.7018 1.7018) (drill 1.7018) (layers *.Cu *.Mask))\u000a    (model /Users/wingtangwong/Documents/KICAD/LIBRARY/3D-MODELS/KAILH-KEY-SWITCH/PG1350-socket.STEP\u000a      (offset (xyz 10 6 -1.6))\u000a      (scale (xyz 1 1 1))\u000a      (rotate (xyz -90 0 0))\u000a    )\u000a    (model "/Users/wingtangwong/Documents/KICAD/LIBRARY/3D-MODELS/KAILH-KEY-SWITCH/kailh-low-profile-mechanical-keyboard-switch-1.snapshot.1/Kailh LP Choc Burnt Orange.STEP"\u000a      (offset (xyz 0 0 3))\u000a      (scale (xyz 1 1 1))\u000a      (rotate (xyz -90 0 -90))\u000a    )\u000a    (model "/Users/wingtangwong/Documents/KICAD/LIBRARY/3D-MODELS/KAILH-KEY-SWITCH/kailh-lp-choc-pc-keycap-1.snapshot.3/Kailh LP Choc PC Keycap.step"\u000a      (offset (xyz 0 0 3))\u000a      (scale (xyz 1 1 1))\u000a      (rotate (xyz 0 0 0))\u000a    )\u000a  )\u000a\u000a  (module WingCustomParts:Kailh_socket_PG1350_optional_reversible_with_3d (layer F.Cu) (tedit 6146BD52) (tstamp 6147A2C2)\u000a    (at -14.25 20)\u000a    (descr "Kailh \u005c"Choc\u005c" PG1350 keyswitch with optional socket mount, reversible")\u000a    (tags kailh,choc)\u000a    (path /6147F031/614851C5)\u000a    (fp_text reference KSW9 (at 0 -8.89) (layer F.SilkS)\u000a      (effects (font (size 1 1) (thickness 0.15)))\u000a    )\u000a    (fp_text value Kailh-Switch (at 0 8.255) (layer F.Fab)\u000a      (effects (font (size 1 1) (thickness 0.15)))\u000a    )\u000a    (fp_line (start -7.5 7.5) (end -7.5 -7.5) (layer F.Fab) (width 0.15))\u000a    (fp_line (start 7.5 7.5) (end -7.5 7.5) (layer F.Fab) (width 0.15))\u000a    (fp_line (start 7.5 -7.5) (end 7.5 7.5) (layer F.Fab) (width 0.15))\u000a    (fp_line (start -7.5 -7.5) (end 7.5 -7.5) (layer F.Fab) (width 0.15))\u000a    (fp_line (start -7 -5) (end -9.5 -5) (layer F.Fab) (width 0.12))\u000a    (fp_line (start -7 -1.5) (end -7 -6.2) (layer F.Fab) (width 0.12))\u000a    (fp_line (start 1.5 -8.2) (end -1.5 -8.2) (layer F.Fab) (width 0.15))\u000a    (fp_line (start 2 -7.7) (end 1.5 -8.2) (layer F.Fab) (width 0.15))\u000a    (fp_line (start 1.5 -3.7) (end -1 -3.7) (layer F.Fab) (width 0.15))\u000a    (fp_line (start 2 -4.2) (end 1.5 -3.7) (layer F.Fab) (width 0.15))\u000a    (fp_line (start -7 -6.2) (end -2.5 -6.2) (layer F.Fab) (width 0.15))\u000a    (fp_line (start -2 -6.7) (end -2 -7.7) (layer F.Fab) (width 0.15))\u000a    (fp_line (start -1.5 -8.2) (end -2 -7.7) (layer F.Fab) (width 0.15))\u000a    (fp_line (start -2.5 -1.5) (end -7 -1.5) (layer F.Fab) (width 0.15))\u000a    (fp_line (start -2.5 -2.2) (end -2.5 -1.5) (layer F.Fab) (width 0.15))\u000a    (fp_line (start 2 -4.25) (end 2 -7.7) (layer F.Fab) (width 0.12))\u000a    (fp_line (start -9.5 -5) (end -9.5 -2.5) (layer F.Fab) (width 0.12))\u000a    (fp_line (start 4.5 -7.25) (end 2 -7.25) (layer F.Fab) (width 0.12))\u000a    (fp_line (start 4.5 -4.75) (end 4.5 -7.25) (layer F.Fab) (width 0.12))\u000a    (fp_line (start 2 -4.75) (end 4.5 -4.75) (layer F.Fab) (width 0.12))\u000a    (fp_line (start -9.5 -2.5) (end -7 -2.5) (layer F.Fab) (width 0.12))\u000a    (fp_line (start 7 -5) (end 9.5 -5) (layer B.Fab) (width 0.12))\u000a    (fp_line (start 7 -1.5) (end 7 -6.2) (layer B.Fab) (width 0.12))\u000a    (fp_line (start -1.5 -8.2) (end 1.5 -8.2) (layer B.Fab) (width 0.15))\u000a    (fp_line (start -2 -7.7) (end -1.5 -8.2) (layer B.Fab) (width 0.15))\u000a    (fp_line (start -1.5 -3.7) (end 1 -3.7) (layer B.Fab) (width 0.15))\u000a    (fp_line (start -2 -4.2) (end -1.5 -3.7) (layer B.Fab) (width 0.15))\u000a    (fp_line (start 7 -6.2) (end 2.5 -6.2) (layer B.Fab) (width 0.15))\u000a    (fp_line (start 2 -6.7) (end 2 -7.7) (layer B.Fab) (width 0.15))\u000a    (fp_line (start 1.5 -8.2) (end 2 -7.7) (layer B.Fab) (width 0.15))\u000a    (fp_line (start 2.5 -1.5) (end 7 -1.5) (layer B.Fab) (width 0.15))\u000a    (fp_line (start 2.5 -2.2) (end 2.5 -1.5) (layer B.Fab) (width 0.15))\u000a    (fp_line (start -2 -4.25) (end -2 -7.7) (layer B.Fab) (width 0.12))\u000a    (fp_line (start 9.5 -5) (end 9.5 -2.5) (layer B.Fab) (width 0.12))\u000a    (fp_line (start -4.5 -7.25) (end -2 -7.25) (layer B.Fab) (width 0.12))\u000a    (fp_line (start -4.5 -4.75) (end -4.5 -7.25) (layer B.Fab) (width 0.12))\u000a    (fp_line (start -2 -4.75) (end -4.5 -4.75) (layer B.Fab) (width 0.12))\u000a    (fp_line (start 9.5 -2.5) (end 7 -2.5) (layer B.Fab) (width 0.12))\u000a    (fp_line (start -2.5 -2.2) (end -2.5 -1.5) (layer F.SilkS) (width 0.15))\u000a    (fp_line (start -2.5 -1.5) (end -7 -1.5) (layer F.SilkS) (width 0.15))\u000a    (fp_line (start -1.5 -8.2) (end -2 -7.7) (layer F.SilkS) (width 0.15))\u000a    (fp_line (start -2 -6.7) (end -2 -7.7) (layer F.SilkS) (width 0.15))\u000a    (fp_line (start -7 -6.2) (end -2.5 -6.2) (layer F.SilkS) (width 0.15))\u000a    (fp_line (start 2 -4.2) (end 1.5 -3.7) (layer F.SilkS) (width 0.15))\u000a    (fp_line (start -7 -5.6) (end -7 -6.2) (layer F.SilkS) (width 0.15))\u000a    (fp_line (start 1.5 -3.7) (end -1 -3.7) (layer F.SilkS) (width 0.15))\u000a    (fp_line (start 2 -7.7) (end 1.5 -8.2) (layer F.SilkS) (width 0.15))\u000a    (fp_line (start 1.5 -8.2) (end -1.5 -8.2) (layer F.SilkS) (width 0.15))\u000a    (fp_line (start -7 -1.5) (end -7 -2) (layer F.SilkS) (width 0.15))\u000a    (fp_line (start 2.5 -2.2) (end 2.5 -1.5) (layer B.SilkS) (width 0.15))\u000a    (fp_line (start 2.5 -1.5) (end 7 -1.5) (layer B.SilkS) (width 0.15))\u000a    (fp_line (start 1.5 -8.2) (end 2 -7.7) (layer B.SilkS) (width 0.15))\u000a    (fp_line (start 2 -6.7) (end 2 -7.7) (layer B.SilkS) (width 0.15))\u000a    (fp_line (start 7 -6.2) (end 2.5 -6.2) (layer B.SilkS) (width 0.15))\u000a    (fp_line (start -2 -4.2) (end -1.5 -3.7) (layer B.SilkS) (width 0.15))\u000a    (fp_line (start 7 -5.6) (end 7 -6.2) (layer B.SilkS) (width 0.15))\u000a    (fp_line (start -1.5 -3.7) (end 1 -3.7) (layer B.SilkS) (width 0.15))\u000a    (fp_line (start -2 -7.7) (end -1.5 -8.2) (layer B.SilkS) (width 0.15))\u000a    (fp_line (start -1.5 -8.2) (end 1.5 -8.2) (layer B.SilkS) (width 0.15))\u000a    (fp_line (start 7 -1.5) (end 7 -2) (layer B.SilkS) (width 0.15))\u000a    (fp_line (start -7 -7) (end -6 -7) (layer B.SilkS) (width 0.15))\u000a    (fp_line (start -7 -6) (end -7 -7) (layer B.SilkS) (width 0.15))\u000a    (fp_line (start 7 -7) (end 7 -6) (layer B.SilkS) (width 0.15))\u000a    (fp_line (start 6 -7) (end 7 -7) (layer B.SilkS) (width 0.15))\u000a    (fp_line (start 7 6) (end 7 7) (layer B.SilkS) (width 0.15))\u000a    (fp_line (start 7 7) (end 6 7) (layer B.SilkS) (width 0.15))\u000a    (fp_line (start -7 7) (end -7 6) (layer B.SilkS) (width 0.15))\u000a    (fp_line (start -6 7) (end -7 7) (layer B.SilkS) (width 0.15))\u000a    (fp_line (start -7.5 7.5) (end -7.5 -7.5) (layer B.Fab) (width 0.15))\u000a    (fp_line (start 7.5 7.5) (end -7.5 7.5) (layer B.Fab) (width 0.15))\u000a    (fp_line (start 7.5 -7.5) (end 7.5 7.5) (layer B.Fab) (width 0.15))\u000a    (fp_line (start -7.5 -7.5) (end 7.5 -7.5) (layer B.Fab) (width 0.15))\u000a    (fp_line (start -6.9 6.9) (end -6.9 -6.9) (layer Eco2.User) (width 0.15))\u000a    (fp_line (start 6.9 -6.9) (end 6.9 6.9) (layer Eco2.User) (width 0.15))\u000a    (fp_line (start 6.9 -6.9) (end -6.9 -6.9) (layer Eco2.User) (width 0.15))\u000a    (fp_line (start -6.9 6.9) (end 6.9 6.9) (layer Eco2.User) (width 0.15))\u000a    (fp_line (start 7 -7) (end 7 -6) (layer F.SilkS) (width 0.15))\u000a    (fp_line (start 6 -7) (end 7 -7) (layer F.SilkS) (width 0.15))\u000a    (fp_line (start 7 7) (end 6 7) (layer F.SilkS) (width 0.15))\u000a    (fp_line (start 7 6) (end 7 7) (layer F.SilkS) (width 0.15))\u000a    (fp_line (start -7 7) (end -7 6) (layer F.SilkS) (width 0.15))\u000a    (fp_line (start -6 7) (end -7 7) (layer F.SilkS) (width 0.15))\u000a    (fp_line (start -7 -7) (end -6 -7) (layer F.SilkS) (width 0.15))\u000a    (fp_line (start -7 -6) (end -7 -7) (layer F.SilkS) (width 0.15))\u000a    (fp_line (start -2.6 -3.1) (end -2.6 -6.3) (layer Eco2.User) (width 0.15))\u000a    (fp_line (start 2.6 -6.3) (end -2.6 -6.3) (layer Eco2.User) (width 0.15))\u000a    (fp_line (start 2.6 -3.1) (end 2.6 -6.3) (layer Eco2.User) (width 0.15))\u000a    (fp_line (start -2.6 -3.1) (end 2.6 -3.1) (layer Eco2.User) (width 0.15))\u000a    (fp_arc (start 2.5 -6.7) (end 2 -6.7) (angle -90) (layer B.SilkS) (width 0.15))\u000a    (fp_arc (start 1 -2.2) (end 2.5 -2.2) (angle -90) (layer B.SilkS) (width 0.15))\u000a    (fp_arc (start -2.5 -6.7) (end -2 -6.7) (angle 90) (layer F.SilkS) (width 0.15))\u000a    (fp_arc (start -1 -2.2) (end -2.5 -2.2) (angle 90) (layer F.SilkS) (width 0.15))\u000a    (fp_arc (start 1 -2.2) (end 2.5 -2.2) (angle -90) (layer B.Fab) (width 0.15))\u000a    (fp_arc (start 2.5 -6.7) (end 2 -6.7) (angle -90) (layer B.Fab) (width 0.15))\u000a    (fp_text user %R (at 3 -5 180) (layer B.Fab)\u000a      (effects (font (size 1 1) (thickness 0.15)) (justify mirror))\u000a    )\u000a    (fp_arc (start -1 -2.2) (end -2.5 -2.2) (angle 90) (layer F.Fab) (width 0.15))\u000a    (fp_arc (start -2.5 -6.7) (end -2 -6.7) (angle 90) (layer F.Fab) (width 0.15))\u000a    (fp_text user %R (at -2.25 -4.75) (layer F.Fab)\u000a      (effects (font (size 1 1) (thickness 0.15)))\u000a    )\u000a    (fp_text user %R (at 0 -8.89) (layer B.SilkS)\u000a      (effects (font (size 1 1) (thickness 0.15)) (justify mirror))\u000a    )\u000a    (fp_text user %V (at 0 8.255) (layer B.Fab)\u000a      (effects (font (size 1 1) (thickness 0.15)) (justify mirror))\u000a    )\u000a    (pad 2 thru_hole circle (at -5 3.8) (size 2.032 2.032) (drill 1.27) (layers *.Cu *.Mask)\u000a      (net 17 COL-B))\u000a    (pad 2 smd rect (at 8.275 -3.75) (size 2.6 2.6) (layers B.Cu B.Paste B.Mask)\u000a      (net 17 COL-B))\u000a    (pad 1 smd rect (at -3.275 -5.95) (size 2.6 2.6) (layers B.Cu B.Paste B.Mask)\u000a      (net 8 "Net-(D8-Pad2)"))\u000a    (pad "" np_thru_hole circle (at 5 -3.75) (size 3 3) (drill 3) (layers *.Cu *.Mask))\u000a    (pad 2 smd rect (at -8.275 -3.75) (size 2.6 2.6) (layers F.Cu F.Paste F.Mask)\u000a      (net 17 COL-B))\u000a    (pad "" np_thru_hole circle (at 0 -5.95) (size 3 3) (drill 3) (layers *.Cu *.Mask))\u000a    (pad 1 thru_hole circle (at 0 5.9) (size 2.032 2.032) (drill 1.27) (layers *.Cu *.Mask)\u000a      (net 8 "Net-(D8-Pad2)"))\u000a    (pad 2 thru_hole circle (at 5 3.8) (size 2.032 2.032) (drill 1.27) (layers *.Cu *.Mask)\u000a      (net 17 COL-B))\u000a    (pad "" np_thru_hole circle (at 0 0) (size 3.429 3.429) (drill 3.429) (layers *.Cu *.Mask))\u000a    (pad "" np_thru_hole circle (at -5 -3.75) (size 3 3) (drill 3) (layers *.Cu *.Mask))\u000a    (pad 1 smd rect (at 3.275 -5.95) (size 2.6 2.6) (layers F.Cu F.Paste F.Mask)\u000a      (net 8 "Net-(D8-Pad2)"))\u000a    (pad "" np_thru_hole circle (at 5.5 0) (size 1.7018 1.7018) (drill 1.7018) (layers *.Cu *.Mask))\u000a    (pad "" np_thru_hole circle (at -5.5 0) (size 1.7018 1.7018) (drill 1.7018) (layers *.Cu *.Mask))\u000a    (model /Users/wingtangwong/Documents/KICAD/LIBRARY/3D-MODELS/KAILH-KEY-SWITCH/PG1350-socket.STEP\u000a      (offset (xyz 10 6 -1.6))\u000a      (scale (xyz 1 1 1))\u000a      (rotate (xyz -90 0 0))\u000a    )\u000a    (model "/Users/wingtangwong/Documents/KICAD/LIBRARY/3D-MODELS/KAILH-KEY-SWITCH/kailh-low-profile-mechanical-keyboard-switch-1.snapshot.1/Kailh LP Choc Burnt Orange.STEP"\u000a      (offset (xyz 0 0 3))\u000a      (scale (xyz 1 1 1))\u000a      (rotate (xyz -90 0 -90))\u000a    )\u000a    (model "/Users/wingtangwong/Documents/KICAD/LIBRARY/3D-MODELS/KAILH-KEY-SWITCH/kailh-lp-choc-pc-keycap-1.snapshot.3/Kailh LP Choc PC Keycap.step"\u000a      (offset (xyz 0 0 3))\u000a      (scale (xyz 1 1 1))\u000a      (rotate (xyz 0 0 0))\u000a    )\u000a  )\u000a\u000a  (module WingCustomParts:Kailh_socket_PG1350_optional_reversible_with_3d (layer F.Cu) (tedit 6146BD52) (tstamp 6147A24D)\u000a    (at -14.25 0)\u000a    (descr "Kailh \u005c"Choc\u005c" PG1350 keyswitch with optional socket mount, reversible")\u000a    (tags kailh,choc)\u000a    (path /6147F031/614851AD)\u000a    (fp_text reference KSW8 (at 0 -8.89) (layer F.SilkS)\u000a      (effects (font (size 1 1) (thickness 0.15)))\u000a    )\u000a    (fp_text value Kailh-Switch (at 0 8.255) (layer F.Fab)\u000a      (effects (font (size 1 1) (thickness 0.15)))\u000a    )\u000a    (fp_line (start -7.5 7.5) (end -7.5 -7.5) (layer F.Fab) (width 0.15))\u000a    (fp_line (start 7.5 7.5) (end -7.5 7.5) (layer F.Fab) (width 0.15))\u000a    (fp_line (start 7.5 -7.5) (end 7.5 7.5) (layer F.Fab) (width 0.15))\u000a    (fp_line (start -7.5 -7.5) (end 7.5 -7.5) (layer F.Fab) (width 0.15))\u000a    (fp_line (start -7 -5) (end -9.5 -5) (layer F.Fab) (width 0.12))\u000a    (fp_line (start -7 -1.5) (end -7 -6.2) (layer F.Fab) (width 0.12))\u000a    (fp_line (start 1.5 -8.2) (end -1.5 -8.2) (layer F.Fab) (width 0.15))\u000a    (fp_line (start 2 -7.7) (end 1.5 -8.2) (layer F.Fab) (width 0.15))\u000a    (fp_line (start 1.5 -3.7) (end -1 -3.7) (layer F.Fab) (width 0.15))\u000a    (fp_line (start 2 -4.2) (end 1.5 -3.7) (layer F.Fab) (width 0.15))\u000a    (fp_line (start -7 -6.2) (end -2.5 -6.2) (layer F.Fab) (width 0.15))\u000a    (fp_line (start -2 -6.7) (end -2 -7.7) (layer F.Fab) (width 0.15))\u000a    (fp_line (start -1.5 -8.2) (end -2 -7.7) (layer F.Fab) (width 0.15))\u000a    (fp_line (start -2.5 -1.5) (end -7 -1.5) (layer F.Fab) (width 0.15))\u000a    (fp_line (start -2.5 -2.2) (end -2.5 -1.5) (layer F.Fab) (width 0.15))\u000a    (fp_line (start 2 -4.25) (end 2 -7.7) (layer F.Fab) (width 0.12))\u000a    (fp_line (start -9.5 -5) (end -9.5 -2.5) (layer F.Fab) (width 0.12))\u000a    (fp_line (start 4.5 -7.25) (end 2 -7.25) (layer F.Fab) (width 0.12))\u000a    (fp_line (start 4.5 -4.75) (end 4.5 -7.25) (layer F.Fab) (width 0.12))\u000a    (fp_line (start 2 -4.75) (end 4.5 -4.75) (layer F.Fab) (width 0.12))\u000a    (fp_line (start -9.5 -2.5) (end -7 -2.5) (layer F.Fab) (width 0.12))\u000a    (fp_line (start 7 -5) (end 9.5 -5) (layer B.Fab) (width 0.12))\u000a    (fp_line (start 7 -1.5) (end 7 -6.2) (layer B.Fab) (width 0.12))\u000a    (fp_line (start -1.5 -8.2) (end 1.5 -8.2) (layer B.Fab) (width 0.15))\u000a    (fp_line (start -2 -7.7) (end -1.5 -8.2) (layer B.Fab) (width 0.15))\u000a    (fp_line (start -1.5 -3.7) (end 1 -3.7) (layer B.Fab) (width 0.15))\u000a    (fp_line (start -2 -4.2) (end -1.5 -3.7) (layer B.Fab) (width 0.15))\u000a    (fp_line (start 7 -6.2) (end 2.5 -6.2) (layer B.Fab) (width 0.15))\u000a    (fp_line (start 2 -6.7) (end 2 -7.7) (layer B.Fab) (width 0.15))\u000a    (fp_line (start 1.5 -8.2) (end 2 -7.7) (layer B.Fab) (width 0.15))\u000a    (fp_line (start 2.5 -1.5) (end 7 -1.5) (layer B.Fab) (width 0.15))\u000a    (fp_line (start 2.5 -2.2) (end 2.5 -1.5) (layer B.Fab) (width 0.15))\u000a    (fp_line (start -2 -4.25) (end -2 -7.7) (layer B.Fab) (width 0.12))\u000a    (fp_line (start 9.5 -5) (end 9.5 -2.5) (layer B.Fab) (width 0.12))\u000a    (fp_line (start -4.5 -7.25) (end -2 -7.25) (layer B.Fab) (width 0.12))\u000a    (fp_line (start -4.5 -4.75) (end -4.5 -7.25) (layer B.Fab) (width 0.12))\u000a    (fp_line (start -2 -4.75) (end -4.5 -4.75) (layer B.Fab) (width 0.12))\u000a    (fp_line (start 9.5 -2.5) (end 7 -2.5) (layer B.Fab) (width 0.12))\u000a    (fp_line (start -2.5 -2.2) (end -2.5 -1.5) (layer F.SilkS) (width 0.15))\u000a    (fp_line (start -2.5 -1.5) (end -7 -1.5) (layer F.SilkS) (width 0.15))\u000a    (fp_line (start -1.5 -8.2) (end -2 -7.7) (layer F.SilkS) (width 0.15))\u000a    (fp_line (start -2 -6.7) (end -2 -7.7) (layer F.SilkS) (width 0.15))\u000a    (fp_line (start -7 -6.2) (end -2.5 -6.2) (layer F.SilkS) (width 0.15))\u000a    (fp_line (start 2 -4.2) (end 1.5 -3.7) (layer F.SilkS) (width 0.15))\u000a    (fp_line (start -7 -5.6) (end -7 -6.2) (layer F.SilkS) (width 0.15))\u000a    (fp_line (start 1.5 -3.7) (end -1 -3.7) (layer F.SilkS) (width 0.15))\u000a    (fp_line (start 2 -7.7) (end 1.5 -8.2) (layer F.SilkS) (width 0.15))\u000a    (fp_line (start 1.5 -8.2) (end -1.5 -8.2) (layer F.SilkS) (width 0.15))\u000a    (fp_line (start -7 -1.5) (end -7 -2) (layer F.SilkS) (width 0.15))\u000a    (fp_line (start 2.5 -2.2) (end 2.5 -1.5) (layer B.SilkS) (width 0.15))\u000a    (fp_line (start 2.5 -1.5) (end 7 -1.5) (layer B.SilkS) (width 0.15))\u000a    (fp_line (start 1.5 -8.2) (end 2 -7.7) (layer B.SilkS) (width 0.15))\u000a    (fp_line (start 2 -6.7) (end 2 -7.7) (layer B.SilkS) (width 0.15))\u000a    (fp_line (start 7 -6.2) (end 2.5 -6.2) (layer B.SilkS) (width 0.15))\u000a    (fp_line (start -2 -4.2) (end -1.5 -3.7) (layer B.SilkS) (width 0.15))\u000a    (fp_line (start 7 -5.6) (end 7 -6.2) (layer B.SilkS) (width 0.15))\u000a    (fp_line (start -1.5 -3.7) (end 1 -3.7) (layer B.SilkS) (width 0.15))\u000a    (fp_line (start -2 -7.7) (end -1.5 -8.2) (layer B.SilkS) (width 0.15))\u000a    (fp_line (start -1.5 -8.2) (end 1.5 -8.2) (layer B.SilkS) (width 0.15))\u000a    (fp_line (start 7 -1.5) (end 7 -2) (layer B.SilkS) (width 0.15))\u000a    (fp_line (start -7 -7) (end -6 -7) (layer B.SilkS) (width 0.15))\u000a    (fp_line (start -7 -6) (end -7 -7) (layer B.SilkS) (width 0.15))\u000a    (fp_line (start 7 -7) (end 7 -6) (layer B.SilkS) (width 0.15))\u000a    (fp_line (start 6 -7) (end 7 -7) (layer B.SilkS) (width 0.15))\u000a    (fp_line (start 7 6) (end 7 7) (layer B.SilkS) (width 0.15))\u000a    (fp_line (start 7 7) (end 6 7) (layer B.SilkS) (width 0.15))\u000a    (fp_line (start -7 7) (end -7 6) (layer B.SilkS) (width 0.15))\u000a    (fp_line (start -6 7) (end -7 7) (layer B.SilkS) (width 0.15))\u000a    (fp_line (start -7.5 7.5) (end -7.5 -7.5) (layer B.Fab) (width 0.15))\u000a    (fp_line (start 7.5 7.5) (end -7.5 7.5) (layer B.Fab) (width 0.15))\u000a    (fp_line (start 7.5 -7.5) (end 7.5 7.5) (layer B.Fab) (width 0.15))\u000a    (fp_line (start -7.5 -7.5) (end 7.5 -7.5) (layer B.Fab) (width 0.15))\u000a    (fp_line (start -6.9 6.9) (end -6.9 -6.9) (layer Eco2.User) (width 0.15))\u000a    (fp_line (start 6.9 -6.9) (end 6.9 6.9) (layer Eco2.User) (width 0.15))\u000a    (fp_line (start 6.9 -6.9) (end -6.9 -6.9) (layer Eco2.User) (width 0.15))\u000a    (fp_line (start -6.9 6.9) (end 6.9 6.9) (layer Eco2.User) (width 0.15))\u000a    (fp_line (start 7 -7) (end 7 -6) (layer F.SilkS) (width 0.15))\u000a    (fp_line (start 6 -7) (end 7 -7) (layer F.SilkS) (width 0.15))\u000a    (fp_line (start 7 7) (end 6 7) (layer F.SilkS) (width 0.15))\u000a    (fp_line (start 7 6) (end 7 7) (layer F.SilkS) (width 0.15))\u000a    (fp_line (start -7 7) (end -7 6) (layer F.SilkS) (width 0.15))\u000a    (fp_line (start -6 7) (end -7 7) (layer F.SilkS) (width 0.15))\u000a    (fp_line (start -7 -7) (end -6 -7) (layer F.SilkS) (width 0.15))\u000a    (fp_line (start -7 -6) (end -7 -7) (layer F.SilkS) (width 0.15))\u000a    (fp_line (start -2.6 -3.1) (end -2.6 -6.3) (layer Eco2.User) (width 0.15))\u000a    (fp_line (start 2.6 -6.3) (end -2.6 -6.3) (layer Eco2.User) (width 0.15))\u000a    (fp_line (start 2.6 -3.1) (end 2.6 -6.3) (layer Eco2.User) (width 0.15))\u000a    (fp_line (start -2.6 -3.1) (end 2.6 -3.1) (layer Eco2.User) (width 0.15))\u000a    (fp_arc (start 2.5 -6.7) (end 2 -6.7) (angle -90) (layer B.SilkS) (width 0.15))\u000a    (fp_arc (start 1 -2.2) (end 2.5 -2.2) (angle -90) (layer B.SilkS) (width 0.15))\u000a    (fp_arc (start -2.5 -6.7) (end -2 -6.7) (angle 90) (layer F.SilkS) (width 0.15))\u000a    (fp_arc (start -1 -2.2) (end -2.5 -2.2) (angle 90) (layer F.SilkS) (width 0.15))\u000a    (fp_arc (start 1 -2.2) (end 2.5 -2.2) (angle -90) (layer B.Fab) (width 0.15))\u000a    (fp_arc (start 2.5 -6.7) (end 2 -6.7) (angle -90) (layer B.Fab) (width 0.15))\u000a    (fp_text user %R (at 3 -5 180) (layer B.Fab)\u000a      (effects (font (size 1 1) (thickness 0.15)) (justify mirror))\u000a    )\u000a    (fp_arc (start -1 -2.2) (end -2.5 -2.2) (angle 90) (layer F.Fab) (width 0.15))\u000a    (fp_arc (start -2.5 -6.7) (end -2 -6.7) (angle 90) (layer F.Fab) (width 0.15))\u000a    (fp_text user %R (at -2.25 -4.75) (layer F.Fab)\u000a      (effects (font (size 1 1) (thickness 0.15)))\u000a    )\u000a    (fp_text user %R (at 0 -8.89) (layer B.SilkS)\u000a      (effects (font (size 1 1) (thickness 0.15)) (justify mirror))\u000a    )\u000a    (fp_text user %V (at 0 8.255) (layer B.Fab)\u000a      (effects (font (size 1 1) (thickness 0.15)) (justify mirror))\u000a    )\u000a    (pad 2 thru_hole circle (at -5 3.8) (size 2.032 2.032) (drill 1.27) (layers *.Cu *.Mask)\u000a      (net 17 COL-B))\u000a    (pad 2 smd rect (at 8.275 -3.75) (size 2.6 2.6) (layers B.Cu B.Paste B.Mask)\u000a      (net 17 COL-B))\u000a    (pad 1 smd rect (at -3.275 -5.95) (size 2.6 2.6) (layers B.Cu B.Paste B.Mask)\u000a      (net 10 "Net-(D10-Pad2)"))\u000a    (pad "" np_thru_hole circle (at 5 -3.75) (size 3 3) (drill 3) (layers *.Cu *.Mask))\u000a    (pad 2 smd rect (at -8.275 -3.75) (size 2.6 2.6) (layers F.Cu F.Paste F.Mask)\u000a      (net 17 COL-B))\u000a    (pad "" np_thru_hole circle (at 0 -5.95) (size 3 3) (drill 3) (layers *.Cu *.Mask))\u000a    (pad 1 thru_hole circle (at 0 5.9) (size 2.032 2.032) (drill 1.27) (layers *.Cu *.Mask)\u000a      (net 10 "Net-(D10-Pad2)"))\u000a    (pad 2 thru_hole circle (at 5 3.8) (size 2.032 2.032) (drill 1.27) (layers *.Cu *.Mask)\u000a      (net 17 COL-B))\u000a    (pad "" np_thru_hole circle (at 0 0) (size 3.429 3.429) (drill 3.429) (layers *.Cu *.Mask))\u000a    (pad "" np_thru_hole circle (at -5 -3.75) (size 3 3) (drill 3) (layers *.Cu *.Mask))\u000a    (pad 1 smd rect (at 3.275 -5.95) (size 2.6 2.6) (layers F.Cu F.Paste F.Mask)\u000a      (net 10 "Net-(D10-Pad2)"))\u000a    (pad "" np_thru_hole circle (at 5.5 0) (size 1.7018 1.7018) (drill 1.7018) (layers *.Cu *.Mask))\u000a    (pad "" np_thru_hole circle (at -5.5 0) (size 1.7018 1.7018) (drill 1.7018) (layers *.Cu *.Mask))\u000a    (model /Users/wingtangwong/Documents/KICAD/LIBRARY/3D-MODELS/KAILH-KEY-SWITCH/PG1350-socket.STEP\u000a      (offset (xyz 10 6 -1.6))\u000a      (scale (xyz 1 1 1))\u000a      (rotate (xyz -90 0 0))\u000a    )\u000a    (model "/Users/wingtangwong/Documents/KICAD/LIBRARY/3D-MODELS/KAILH-KEY-SWITCH/kailh-low-profile-mechanical-keyboard-switch-1.snapshot.1/Kailh LP Choc Burnt Orange.STEP"\u000a      (offset (xyz 0 0 3))\u000a      (scale (xyz 1 1 1))\u000a      (rotate (xyz -90 0 -90))\u000a    )\u000a    (model "/Users/wingtangwong/Documents/KICAD/LIBRARY/3D-MODELS/KAILH-KEY-SWITCH/kailh-lp-choc-pc-keycap-1.snapshot.3/Kailh LP Choc PC Keycap.step"\u000a      (offset (xyz 0 0 3))\u000a      (scale (xyz 1 1 1))\u000a      (rotate (xyz 0 0 0))\u000a    )\u000a  )\u000a\u000a  (module WingCustomParts:Kailh_socket_PG1350_optional_reversible_with_3d (layer F.Cu) (tedit 6146BD52) (tstamp 6147A1D8)\u000a    (at -14.25 -20)\u000a    (descr "Kailh \u005c"Choc\u005c" PG1350 keyswitch with optional socket mount, reversible")\u000a    (tags kailh,choc)\u000a    (path /6147F031/614851A7)\u000a    (fp_text reference KSW7 (at 0 -8.89) (layer F.SilkS)\u000a      (effects (font (size 1 1) (thickness 0.15)))\u000a    )\u000a    (fp_text value Kailh-Switch (at 0 8.255) (layer F.Fab)\u000a      (effects (font (size 1 1) (thickness 0.15)))\u000a    )\u000a    (fp_line (start -7.5 7.5) (end -7.5 -7.5) (layer F.Fab) (width 0.15))\u000a    (fp_line (start 7.5 7.5) (end -7.5 7.5) (layer F.Fab) (width 0.15))\u000a    (fp_line (start 7.5 -7.5) (end 7.5 7.5) (layer F.Fab) (width 0.15))\u000a    (fp_line (start -7.5 -7.5) (end 7.5 -7.5) (layer F.Fab) (width 0.15))\u000a    (fp_line (start -7 -5) (end -9.5 -5) (layer F.Fab) (width 0.12))\u000a    (fp_line (start -7 -1.5) (end -7 -6.2) (layer F.Fab) (width 0.12))\u000a    (fp_line (start 1.5 -8.2) (end -1.5 -8.2) (layer F.Fab) (width 0.15))\u000a    (fp_line (start 2 -7.7) (end 1.5 -8.2) (layer F.Fab) (width 0.15))\u000a    (fp_line (start 1.5 -3.7) (end -1 -3.7) (layer F.Fab) (width 0.15))\u000a    (fp_line (start 2 -4.2) (end 1.5 -3.7) (layer F.Fab) (width 0.15))\u000a    (fp_line (start -7 -6.2) (end -2.5 -6.2) (layer F.Fab) (width 0.15))\u000a    (fp_line (start -2 -6.7) (end -2 -7.7) (layer F.Fab) (width 0.15))\u000a    (fp_line (start -1.5 -8.2) (end -2 -7.7) (layer F.Fab) (width 0.15))\u000a    (fp_line (start -2.5 -1.5) (end -7 -1.5) (layer F.Fab) (width 0.15))\u000a    (fp_line (start -2.5 -2.2) (end -2.5 -1.5) (layer F.Fab) (width 0.15))\u000a    (fp_line (start 2 -4.25) (end 2 -7.7) (layer F.Fab) (width 0.12))\u000a    (fp_line (start -9.5 -5) (end -9.5 -2.5) (layer F.Fab) (width 0.12))\u000a    (fp_line (start 4.5 -7.25) (end 2 -7.25) (layer F.Fab) (width 0.12))\u000a    (fp_line (start 4.5 -4.75) (end 4.5 -7.25) (layer F.Fab) (width 0.12))\u000a    (fp_line (start 2 -4.75) (end 4.5 -4.75) (layer F.Fab) (width 0.12))\u000a    (fp_line (start -9.5 -2.5) (end -7 -2.5) (layer F.Fab) (width 0.12))\u000a    (fp_line (start 7 -5) (end 9.5 -5) (layer B.Fab) (width 0.12))\u000a    (fp_line (start 7 -1.5) (end 7 -6.2) (layer B.Fab) (width 0.12))\u000a    (fp_line (start -1.5 -8.2) (end 1.5 -8.2) (layer B.Fab) (width 0.15))\u000a    (fp_line (start -2 -7.7) (end -1.5 -8.2) (layer B.Fab) (width 0.15))\u000a    (fp_line (start -1.5 -3.7) (end 1 -3.7) (layer B.Fab) (width 0.15))\u000a    (fp_line (start -2 -4.2) (end -1.5 -3.7) (layer B.Fab) (width 0.15))\u000a    (fp_line (start 7 -6.2) (end 2.5 -6.2) (layer B.Fab) (width 0.15))\u000a    (fp_line (start 2 -6.7) (end 2 -7.7) (layer B.Fab) (width 0.15))\u000a    (fp_line (start 1.5 -8.2) (end 2 -7.7) (layer B.Fab) (width 0.15))\u000a    (fp_line (start 2.5 -1.5) (end 7 -1.5) (layer B.Fab) (width 0.15))\u000a    (fp_line (start 2.5 -2.2) (end 2.5 -1.5) (layer B.Fab) (width 0.15))\u000a    (fp_line (start -2 -4.25) (end -2 -7.7) (layer B.Fab) (width 0.12))\u000a    (fp_line (start 9.5 -5) (end 9.5 -2.5) (layer B.Fab) (width 0.12))\u000a    (fp_line (start -4.5 -7.25) (end -2 -7.25) (layer B.Fab) (width 0.12))\u000a    (fp_line (start -4.5 -4.75) (end -4.5 -7.25) (layer B.Fab) (width 0.12))\u000a    (fp_line (start -2 -4.75) (end -4.5 -4.75) (layer B.Fab) (width 0.12))\u000a    (fp_line (start 9.5 -2.5) (end 7 -2.5) (layer B.Fab) (width 0.12))\u000a    (fp_line (start -2.5 -2.2) (end -2.5 -1.5) (layer F.SilkS) (width 0.15))\u000a    (fp_line (start -2.5 -1.5) (end -7 -1.5) (layer F.SilkS) (width 0.15))\u000a    (fp_line (start -1.5 -8.2) (end -2 -7.7) (layer F.SilkS) (width 0.15))\u000a    (fp_line (start -2 -6.7) (end -2 -7.7) (layer F.SilkS) (width 0.15))\u000a    (fp_line (start -7 -6.2) (end -2.5 -6.2) (layer F.SilkS) (width 0.15))\u000a    (fp_line (start 2 -4.2) (end 1.5 -3.7) (layer F.SilkS) (width 0.15))\u000a    (fp_line (start -7 -5.6) (end -7 -6.2) (layer F.SilkS) (width 0.15))\u000a    (fp_line (start 1.5 -3.7) (end -1 -3.7) (layer F.SilkS) (width 0.15))\u000a    (fp_line (start 2 -7.7) (end 1.5 -8.2) (layer F.SilkS) (width 0.15))\u000a    (fp_line (start 1.5 -8.2) (end -1.5 -8.2) (layer F.SilkS) (width 0.15))\u000a    (fp_line (start -7 -1.5) (end -7 -2) (layer F.SilkS) (width 0.15))\u000a    (fp_line (start 2.5 -2.2) (end 2.5 -1.5) (layer B.SilkS) (width 0.15))\u000a    (fp_line (start 2.5 -1.5) (end 7 -1.5) (layer B.SilkS) (width 0.15))\u000a    (fp_line (start 1.5 -8.2) (end 2 -7.7) (layer B.SilkS) (width 0.15))\u000a    (fp_line (start 2 -6.7) (end 2 -7.7) (layer B.SilkS) (width 0.15))\u000a    (fp_line (start 7 -6.2) (end 2.5 -6.2) (layer B.SilkS) (width 0.15))\u000a    (fp_line (start -2 -4.2) (end -1.5 -3.7) (layer B.SilkS) (width 0.15))\u000a    (fp_line (start 7 -5.6) (end 7 -6.2) (layer B.SilkS) (width 0.15))\u000a    (fp_line (start -1.5 -3.7) (end 1 -3.7) (layer B.SilkS) (width 0.15))\u000a    (fp_line (start -2 -7.7) (end -1.5 -8.2) (layer B.SilkS) (width 0.15))\u000a    (fp_line (start -1.5 -8.2) (end 1.5 -8.2) (layer B.SilkS) (width 0.15))\u000a    (fp_line (start 7 -1.5) (end 7 -2) (layer B.SilkS) (width 0.15))\u000a    (fp_line (start -7 -7) (end -6 -7) (layer B.SilkS) (width 0.15))\u000a    (fp_line (start -7 -6) (end -7 -7) (layer B.SilkS) (width 0.15))\u000a    (fp_line (start 7 -7) (end 7 -6) (layer B.SilkS) (width 0.15))\u000a    (fp_line (start 6 -7) (end 7 -7) (layer B.SilkS) (width 0.15))\u000a    (fp_line (start 7 6) (end 7 7) (layer B.SilkS) (width 0.15))\u000a    (fp_line (start 7 7) (end 6 7) (layer B.SilkS) (width 0.15))\u000a    (fp_line (start -7 7) (end -7 6) (layer B.SilkS) (width 0.15))\u000a    (fp_line (start -6 7) (end -7 7) (layer B.SilkS) (width 0.15))\u000a    (fp_line (start -7.5 7.5) (end -7.5 -7.5) (layer B.Fab) (width 0.15))\u000a    (fp_line (start 7.5 7.5) (end -7.5 7.5) (layer B.Fab) (width 0.15))\u000a    (fp_line (start 7.5 -7.5) (end 7.5 7.5) (layer B.Fab) (width 0.15))\u000a    (fp_line (start -7.5 -7.5) (end 7.5 -7.5) (layer B.Fab) (width 0.15))\u000a    (fp_line (start -6.9 6.9) (end -6.9 -6.9) (layer Eco2.User) (width 0.15))\u000a    (fp_line (start 6.9 -6.9) (end 6.9 6.9) (layer Eco2.User) (width 0.15))\u000a    (fp_line (start 6.9 -6.9) (end -6.9 -6.9) (layer Eco2.User) (width 0.15))\u000a    (fp_line (start -6.9 6.9) (end 6.9 6.9) (layer Eco2.User) (width 0.15))\u000a    (fp_line (start 7 -7) (end 7 -6) (layer F.SilkS) (width 0.15))\u000a    (fp_line (start 6 -7) (end 7 -7) (layer F.SilkS) (width 0.15))\u000a    (fp_line (start 7 7) (end 6 7) (layer F.SilkS) (width 0.15))\u000a    (fp_line (start 7 6) (end 7 7) (layer F.SilkS) (width 0.15))\u000a    (fp_line (start -7 7) (end -7 6) (layer F.SilkS) (width 0.15))\u000a    (fp_line (start -6 7) (end -7 7) (layer F.SilkS) (width 0.15))\u000a    (fp_line (start -7 -7) (end -6 -7) (layer F.SilkS) (width 0.15))\u000a    (fp_line (start -7 -6) (end -7 -7) (layer F.SilkS) (width 0.15))\u000a    (fp_line (start -2.6 -3.1) (end -2.6 -6.3) (layer Eco2.User) (width 0.15))\u000a    (fp_line (start 2.6 -6.3) (end -2.6 -6.3) (layer Eco2.User) (width 0.15))\u000a    (fp_line (start 2.6 -3.1) (end 2.6 -6.3) (layer Eco2.User) (width 0.15))\u000a    (fp_line (start -2.6 -3.1) (end 2.6 -3.1) (layer Eco2.User) (width 0.15))\u000a    (fp_arc (start 2.5 -6.7) (end 2 -6.7) (angle -90) (layer B.SilkS) (width 0.15))\u000a    (fp_arc (start 1 -2.2) (end 2.5 -2.2) (angle -90) (layer B.SilkS) (width 0.15))\u000a    (fp_arc (start -2.5 -6.7) (end -2 -6.7) (angle 90) (layer F.SilkS) (width 0.15))\u000a    (fp_arc (start -1 -2.2) (end -2.5 -2.2) (angle 90) (layer F.SilkS) (width 0.15))\u000a    (fp_arc (start 1 -2.2) (end 2.5 -2.2) (angle -90) (layer B.Fab) (width 0.15))\u000a    (fp_arc (start 2.5 -6.7) (end 2 -6.7) (angle -90) (layer B.Fab) (width 0.15))\u000a    (fp_text user %R (at 3 -5 180) (layer B.Fab)\u000a      (effects (font (size 1 1) (thickness 0.15)) (justify mirror))\u000a    )\u000a    (fp_arc (start -1 -2.2) (end -2.5 -2.2) (angle 90) (layer F.Fab) (width 0.15))\u000a    (fp_arc (start -2.5 -6.7) (end -2 -6.7) (angle 90) (layer F.Fab) (width 0.15))\u000a    (fp_text user %R (at -2.25 -4.75) (layer F.Fab)\u000a      (effects (font (size 1 1) (thickness 0.15)))\u000a    )\u000a    (fp_text user %R (at 0 -8.89) (layer B.SilkS)\u000a      (effects (font (size 1 1) (thickness 0.15)) (justify mirror))\u000a    )\u000a    (fp_text user %V (at 0 8.255) (layer B.Fab)\u000a      (effects (font (size 1 1) (thickness 0.15)) (justify mirror))\u000a    )\u000a    (pad 2 thru_hole circle (at -5 3.8) (size 2.032 2.032) (drill 1.27) (layers *.Cu *.Mask)\u000a      (net 17 COL-B))\u000a    (pad 2 smd rect (at 8.275 -3.75) (size 2.6 2.6) (layers B.Cu B.Paste B.Mask)\u000a      (net 17 COL-B))\u000a    (pad 1 smd rect (at -3.275 -5.95) (size 2.6 2.6) (layers B.Cu B.Paste B.Mask)\u000a      (net 7 "Net-(D7-Pad2)"))\u000a    (pad "" np_thru_hole circle (at 5 -3.75) (size 3 3) (drill 3) (layers *.Cu *.Mask))\u000a    (pad 2 smd rect (at -8.275 -3.75) (size 2.6 2.6) (layers F.Cu F.Paste F.Mask)\u000a      (net 17 COL-B))\u000a    (pad "" np_thru_hole circle (at 0 -5.95) (size 3 3) (drill 3) (layers *.Cu *.Mask))\u000a    (pad 1 thru_hole circle (at 0 5.9) (size 2.032 2.032) (drill 1.27) (layers *.Cu *.Mask)\u000a      (net 7 "Net-(D7-Pad2)"))\u000a    (pad 2 thru_hole circle (at 5 3.8) (size 2.032 2.032) (drill 1.27) (layers *.Cu *.Mask)\u000a      (net 17 COL-B))\u000a    (pad "" np_thru_hole circle (at 0 0) (size 3.429 3.429) (drill 3.429) (layers *.Cu *.Mask))\u000a    (pad "" np_thru_hole circle (at -5 -3.75) (size 3 3) (drill 3) (layers *.Cu *.Mask))\u000a    (pad 1 smd rect (at 3.275 -5.95) (size 2.6 2.6) (layers F.Cu F.Paste F.Mask)\u000a      (net 7 "Net-(D7-Pad2)"))\u000a    (pad "" np_thru_hole circle (at 5.5 0) (size 1.7018 1.7018) (drill 1.7018) (layers *.Cu *.Mask))\u000a    (pad "" np_thru_hole circle (at -5.5 0) (size 1.7018 1.7018) (drill 1.7018) (layers *.Cu *.Mask))\u000a    (model /Users/wingtangwong/Documents/KICAD/LIBRARY/3D-MODELS/KAILH-KEY-SWITCH/PG1350-socket.STEP\u000a      (offset (xyz 10 6 -1.6))\u000a      (scale (xyz 1 1 1))\u000a      (rotate (xyz -90 0 0))\u000a    )\u000a    (model "/Users/wingtangwong/Documents/KICAD/LIBRARY/3D-MODELS/KAILH-KEY-SWITCH/kailh-low-profile-mechanical-keyboard-switch-1.snapshot.1/Kailh LP Choc Burnt Orange.STEP"\u000a      (offset (xyz 0 0 3))\u000a      (scale (xyz 1 1 1))\u000a      (rotate (xyz -90 0 -90))\u000a    )\u000a    (model "/Users/wingtangwong/Documents/KICAD/LIBRARY/3D-MODELS/KAILH-KEY-SWITCH/kailh-lp-choc-pc-keycap-1.snapshot.3/Kailh LP Choc PC Keycap.step"\u000a      (offset (xyz 0 0 3))\u000a      (scale (xyz 1 1 1))\u000a      (rotate (xyz 0 0 0))\u000a    )\u000a  )\u000a\u000a  (module WingCustomParts:Kailh_socket_PG1350_optional_reversible_with_3d (layer F.Cu) (tedit 6146BD52) (tstamp 6147A163)\u000a    (at -14.25 -40)\u000a    (descr "Kailh \u005c"Choc\u005c" PG1350 keyswitch with optional socket mount, reversible")\u000a    (tags kailh,choc)\u000a    (path /6147F031/614851A1)\u000a    (fp_text reference KSW6 (at 0 -8.89) (layer F.SilkS)\u000a      (effects (font (size 1 1) (thickness 0.15)))\u000a    )\u000a    (fp_text value Kailh-Switch (at 0 8.255) (layer F.Fab)\u000a      (effects (font (size 1 1) (thickness 0.15)))\u000a    )\u000a    (fp_line (start -7.5 7.5) (end -7.5 -7.5) (layer F.Fab) (width 0.15))\u000a    (fp_line (start 7.5 7.5) (end -7.5 7.5) (layer F.Fab) (width 0.15))\u000a    (fp_line (start 7.5 -7.5) (end 7.5 7.5) (layer F.Fab) (width 0.15))\u000a    (fp_line (start -7.5 -7.5) (end 7.5 -7.5) (layer F.Fab) (width 0.15))\u000a    (fp_line (start -7 -5) (end -9.5 -5) (layer F.Fab) (width 0.12))\u000a    (fp_line (start -7 -1.5) (end -7 -6.2) (layer F.Fab) (width 0.12))\u000a    (fp_line (start 1.5 -8.2) (end -1.5 -8.2) (layer F.Fab) (width 0.15))\u000a    (fp_line (start 2 -7.7) (end 1.5 -8.2) (layer F.Fab) (width 0.15))\u000a    (fp_line (start 1.5 -3.7) (end -1 -3.7) (layer F.Fab) (width 0.15))\u000a    (fp_line (start 2 -4.2) (end 1.5 -3.7) (layer F.Fab) (width 0.15))\u000a    (fp_line (start -7 -6.2) (end -2.5 -6.2) (layer F.Fab) (width 0.15))\u000a    (fp_line (start -2 -6.7) (end -2 -7.7) (layer F.Fab) (width 0.15))\u000a    (fp_line (start -1.5 -8.2) (end -2 -7.7) (layer F.Fab) (width 0.15))\u000a    (fp_line (start -2.5 -1.5) (end -7 -1.5) (layer F.Fab) (width 0.15))\u000a    (fp_line (start -2.5 -2.2) (end -2.5 -1.5) (layer F.Fab) (width 0.15))\u000a    (fp_line (start 2 -4.25) (end 2 -7.7) (layer F.Fab) (width 0.12))\u000a    (fp_line (start -9.5 -5) (end -9.5 -2.5) (layer F.Fab) (width 0.12))\u000a    (fp_line (start 4.5 -7.25) (end 2 -7.25) (layer F.Fab) (width 0.12))\u000a    (fp_line (start 4.5 -4.75) (end 4.5 -7.25) (layer F.Fab) (width 0.12))\u000a    (fp_line (start 2 -4.75) (end 4.5 -4.75) (layer F.Fab) (width 0.12))\u000a    (fp_line (start -9.5 -2.5) (end -7 -2.5) (layer F.Fab) (width 0.12))\u000a    (fp_line (start 7 -5) (end 9.5 -5) (layer B.Fab) (width 0.12))\u000a    (fp_line (start 7 -1.5) (end 7 -6.2) (layer B.Fab) (width 0.12))\u000a    (fp_line (start -1.5 -8.2) (end 1.5 -8.2) (layer B.Fab) (width 0.15))\u000a    (fp_line (start -2 -7.7) (end -1.5 -8.2) (layer B.Fab) (width 0.15))\u000a    (fp_line (start -1.5 -3.7) (end 1 -3.7) (layer B.Fab) (width 0.15))\u000a    (fp_line (start -2 -4.2) (end -1.5 -3.7) (layer B.Fab) (width 0.15))\u000a    (fp_line (start 7 -6.2) (end 2.5 -6.2) (layer B.Fab) (width 0.15))\u000a    (fp_line (start 2 -6.7) (end 2 -7.7) (layer B.Fab) (width 0.15))\u000a    (fp_line (start 1.5 -8.2) (end 2 -7.7) (layer B.Fab) (width 0.15))\u000a    (fp_line (start 2.5 -1.5) (end 7 -1.5) (layer B.Fab) (width 0.15))\u000a    (fp_line (start 2.5 -2.2) (end 2.5 -1.5) (layer B.Fab) (width 0.15))\u000a    (fp_line (start -2 -4.25) (end -2 -7.7) (layer B.Fab) (width 0.12))\u000a    (fp_line (start 9.5 -5) (end 9.5 -2.5) (layer B.Fab) (width 0.12))\u000a    (fp_line (start -4.5 -7.25) (end -2 -7.25) (layer B.Fab) (width 0.12))\u000a    (fp_line (start -4.5 -4.75) (end -4.5 -7.25) (layer B.Fab) (width 0.12))\u000a    (fp_line (start -2 -4.75) (end -4.5 -4.75) (layer B.Fab) (width 0.12))\u000a    (fp_line (start 9.5 -2.5) (end 7 -2.5) (layer B.Fab) (width 0.12))\u000a    (fp_line (start -2.5 -2.2) (end -2.5 -1.5) (layer F.SilkS) (width 0.15))\u000a    (fp_line (start -2.5 -1.5) (end -7 -1.5) (layer F.SilkS) (width 0.15))\u000a    (fp_line (start -1.5 -8.2) (end -2 -7.7) (layer F.SilkS) (width 0.15))\u000a    (fp_line (start -2 -6.7) (end -2 -7.7) (layer F.SilkS) (width 0.15))\u000a    (fp_line (start -7 -6.2) (end -2.5 -6.2) (layer F.SilkS) (width 0.15))\u000a    (fp_line (start 2 -4.2) (end 1.5 -3.7) (layer F.SilkS) (width 0.15))\u000a    (fp_line (start -7 -5.6) (end -7 -6.2) (layer F.SilkS) (width 0.15))\u000a    (fp_line (start 1.5 -3.7) (end -1 -3.7) (layer F.SilkS) (width 0.15))\u000a    (fp_line (start 2 -7.7) (end 1.5 -8.2) (layer F.SilkS) (width 0.15))\u000a    (fp_line (start 1.5 -8.2) (end -1.5 -8.2) (layer F.SilkS) (width 0.15))\u000a    (fp_line (start -7 -1.5) (end -7 -2) (layer F.SilkS) (width 0.15))\u000a    (fp_line (start 2.5 -2.2) (end 2.5 -1.5) (layer B.SilkS) (width 0.15))\u000a    (fp_line (start 2.5 -1.5) (end 7 -1.5) (layer B.SilkS) (width 0.15))\u000a    (fp_line (start 1.5 -8.2) (end 2 -7.7) (layer B.SilkS) (width 0.15))\u000a    (fp_line (start 2 -6.7) (end 2 -7.7) (layer B.SilkS) (width 0.15))\u000a    (fp_line (start 7 -6.2) (end 2.5 -6.2) (layer B.SilkS) (width 0.15))\u000a    (fp_line (start -2 -4.2) (end -1.5 -3.7) (layer B.SilkS) (width 0.15))\u000a    (fp_line (start 7 -5.6) (end 7 -6.2) (layer B.SilkS) (width 0.15))\u000a    (fp_line (start -1.5 -3.7) (end 1 -3.7) (layer B.SilkS) (width 0.15))\u000a    (fp_line (start -2 -7.7) (end -1.5 -8.2) (layer B.SilkS) (width 0.15))\u000a    (fp_line (start -1.5 -8.2) (end 1.5 -8.2) (layer B.SilkS) (width 0.15))\u000a    (fp_line (start 7 -1.5) (end 7 -2) (layer B.SilkS) (width 0.15))\u000a    (fp_line (start -7 -7) (end -6 -7) (layer B.SilkS) (width 0.15))\u000a    (fp_line (start -7 -6) (end -7 -7) (layer B.SilkS) (width 0.15))\u000a    (fp_line (start 7 -7) (end 7 -6) (layer B.SilkS) (width 0.15))\u000a    (fp_line (start 6 -7) (end 7 -7) (layer B.SilkS) (width 0.15))\u000a    (fp_line (start 7 6) (end 7 7) (layer B.SilkS) (width 0.15))\u000a    (fp_line (start 7 7) (end 6 7) (layer B.SilkS) (width 0.15))\u000a    (fp_line (start -7 7) (end -7 6) (layer B.SilkS) (width 0.15))\u000a    (fp_line (start -6 7) (end -7 7) (layer B.SilkS) (width 0.15))\u000a    (fp_line (start -7.5 7.5) (end -7.5 -7.5) (layer B.Fab) (width 0.15))\u000a    (fp_line (start 7.5 7.5) (end -7.5 7.5) (layer B.Fab) (width 0.15))\u000a    (fp_line (start 7.5 -7.5) (end 7.5 7.5) (layer B.Fab) (width 0.15))\u000a    (fp_line (start -7.5 -7.5) (end 7.5 -7.5) (layer B.Fab) (width 0.15))\u000a    (fp_line (start -6.9 6.9) (end -6.9 -6.9) (layer Eco2.User) (width 0.15))\u000a    (fp_line (start 6.9 -6.9) (end 6.9 6.9) (layer Eco2.User) (width 0.15))\u000a    (fp_line (start 6.9 -6.9) (end -6.9 -6.9) (layer Eco2.User) (width 0.15))\u000a    (fp_line (start -6.9 6.9) (end 6.9 6.9) (layer Eco2.User) (width 0.15))\u000a    (fp_line (start 7 -7) (end 7 -6) (layer F.SilkS) (width 0.15))\u000a    (fp_line (start 6 -7) (end 7 -7) (layer F.SilkS) (width 0.15))\u000a    (fp_line (start 7 7) (end 6 7) (layer F.SilkS) (width 0.15))\u000a    (fp_line (start 7 6) (end 7 7) (layer F.SilkS) (width 0.15))\u000a    (fp_line (start -7 7) (end -7 6) (layer F.SilkS) (width 0.15))\u000a    (fp_line (start -6 7) (end -7 7) (layer F.SilkS) (width 0.15))\u000a    (fp_line (start -7 -7) (end -6 -7) (layer F.SilkS) (width 0.15))\u000a    (fp_line (start -7 -6) (end -7 -7) (layer F.SilkS) (width 0.15))\u000a    (fp_line (start -2.6 -3.1) (end -2.6 -6.3) (layer Eco2.User) (width 0.15))\u000a    (fp_line (start 2.6 -6.3) (end -2.6 -6.3) (layer Eco2.User) (width 0.15))\u000a    (fp_line (start 2.6 -3.1) (end 2.6 -6.3) (layer Eco2.User) (width 0.15))\u000a    (fp_line (start -2.6 -3.1) (end 2.6 -3.1) (layer Eco2.User) (width 0.15))\u000a    (fp_arc (start 2.5 -6.7) (end 2 -6.7) (angle -90) (layer B.SilkS) (width 0.15))\u000a    (fp_arc (start 1 -2.2) (end 2.5 -2.2) (angle -90) (layer B.SilkS) (width 0.15))\u000a    (fp_arc (start -2.5 -6.7) (end -2 -6.7) (angle 90) (layer F.SilkS) (width 0.15))\u000a    (fp_arc (start -1 -2.2) (end -2.5 -2.2) (angle 90) (layer F.SilkS) (width 0.15))\u000a    (fp_arc (start 1 -2.2) (end 2.5 -2.2) (angle -90) (layer B.Fab) (width 0.15))\u000a    (fp_arc (start 2.5 -6.7) (end 2 -6.7) (angle -90) (layer B.Fab) (width 0.15))\u000a    (fp_text user %R (at 3 -5 180) (layer B.Fab)\u000a      (effects (font (size 1 1) (thickness 0.15)) (justify mirror))\u000a    )\u000a    (fp_arc (start -1 -2.2) (end -2.5 -2.2) (angle 90) (layer F.Fab) (width 0.15))\u000a    (fp_arc (start -2.5 -6.7) (end -2 -6.7) (angle 90) (layer F.Fab) (width 0.15))\u000a    (fp_text user %R (at -2.25 -4.75) (layer F.Fab)\u000a      (effects (font (size 1 1) (thickness 0.15)))\u000a    )\u000a    (fp_text user %R (at 0 -8.89) (layer B.SilkS)\u000a      (effects (font (size 1 1) (thickness 0.15)) (justify mirror))\u000a    )\u000a    (fp_text user %V (at 0 8.255) (layer B.Fab)\u000a      (effects (font (size 1 1) (thickness 0.15)) (justify mirror))\u000a    )\u000a    (pad 2 thru_hole circle (at -5 3.8) (size 2.032 2.032) (drill 1.27) (layers *.Cu *.Mask)\u000a      (net 17 COL-B))\u000a    (pad 2 smd rect (at 8.275 -3.75) (size 2.6 2.6) (layers B.Cu B.Paste B.Mask)\u000a      (net 17 COL-B))\u000a    (pad 1 smd rect (at -3.275 -5.95) (size 2.6 2.6) (layers B.Cu B.Paste B.Mask)\u000a      (net 6 "Net-(D6-Pad2)"))\u000a    (pad "" np_thru_hole circle (at 5 -3.75) (size 3 3) (drill 3) (layers *.Cu *.Mask))\u000a    (pad 2 smd rect (at -8.275 -3.75) (size 2.6 2.6) (layers F.Cu F.Paste F.Mask)\u000a      (net 17 COL-B))\u000a    (pad "" np_thru_hole circle (at 0 -5.95) (size 3 3) (drill 3) (layers *.Cu *.Mask))\u000a    (pad 1 thru_hole circle (at 0 5.9) (size 2.032 2.032) (drill 1.27) (layers *.Cu *.Mask)\u000a      (net 6 "Net-(D6-Pad2)"))\u000a    (pad 2 thru_hole circle (at 5 3.8) (size 2.032 2.032) (drill 1.27) (layers *.Cu *.Mask)\u000a      (net 17 COL-B))\u000a    (pad "" np_thru_hole circle (at 0 0) (size 3.429 3.429) (drill 3.429) (layers *.Cu *.Mask))\u000a    (pad "" np_thru_hole circle (at -5 -3.75) (size 3 3) (drill 3) (layers *.Cu *.Mask))\u000a    (pad 1 smd rect (at 3.275 -5.95) (size 2.6 2.6) (layers F.Cu F.Paste F.Mask)\u000a      (net 6 "Net-(D6-Pad2)"))\u000a    (pad "" np_thru_hole circle (at 5.5 0) (size 1.7018 1.7018) (drill 1.7018) (layers *.Cu *.Mask))\u000a    (pad "" np_thru_hole circle (at -5.5 0) (size 1.7018 1.7018) (drill 1.7018) (layers *.Cu *.Mask))\u000a    (model /Users/wingtangwong/Documents/KICAD/LIBRARY/3D-MODELS/KAILH-KEY-SWITCH/PG1350-socket.STEP\u000a      (offset (xyz 10 6 -1.6))\u000a      (scale (xyz 1 1 1))\u000a      (rotate (xyz -90 0 0))\u000a    )\u000a    (model "/Users/wingtangwong/Documents/KICAD/LIBRARY/3D-MODELS/KAILH-KEY-SWITCH/kailh-low-profile-mechanical-keyboard-switch-1.snapshot.1/Kailh LP Choc Burnt Orange.STEP"\u000a      (offset (xyz 0 0 3))\u000a      (scale (xyz 1 1 1))\u000a      (rotate (xyz -90 0 -90))\u000a    )\u000a    (model "/Users/wingtangwong/Documents/KICAD/LIBRARY/3D-MODELS/KAILH-KEY-SWITCH/kailh-lp-choc-pc-keycap-1.snapshot.3/Kailh LP Choc PC Keycap.step"\u000a      (offset (xyz 0 0 3))\u000a      (scale (xyz 1 1 1))\u000a      (rotate (xyz 0 0 0))\u000a    )\u000a  )\u000a\u000a  (module WingCustomParts:Kailh_socket_PG1350_optional_reversible_with_3d (layer F.Cu) (tedit 6146BD52) (tstamp 6147A0EE)\u000a    (at -36.75 40)\u000a    (descr "Kailh \u005c"Choc\u005c" PG1350 keyswitch with optional socket mount, reversible")\u000a    (tags kailh,choc)\u000a    (path /6147F031/614851CB)\u000a    (fp_text reference KSW5 (at 0 -8.89) (layer F.SilkS)\u000a      (effects (font (size 1 1) (thickness 0.15)))\u000a    )\u000a    (fp_text value Kailh-Switch (at 0 8.255) (layer F.Fab)\u000a      (effects (font (size 1 1) (thickness 0.15)))\u000a    )\u000a    (fp_line (start -7.5 7.5) (end -7.5 -7.5) (layer F.Fab) (width 0.15))\u000a    (fp_line (start 7.5 7.5) (end -7.5 7.5) (layer F.Fab) (width 0.15))\u000a    (fp_line (start 7.5 -7.5) (end 7.5 7.5) (layer F.Fab) (width 0.15))\u000a    (fp_line (start -7.5 -7.5) (end 7.5 -7.5) (layer F.Fab) (width 0.15))\u000a    (fp_line (start -7 -5) (end -9.5 -5) (layer F.Fab) (width 0.12))\u000a    (fp_line (start -7 -1.5) (end -7 -6.2) (layer F.Fab) (width 0.12))\u000a    (fp_line (start 1.5 -8.2) (end -1.5 -8.2) (layer F.Fab) (width 0.15))\u000a    (fp_line (start 2 -7.7) (end 1.5 -8.2) (layer F.Fab) (width 0.15))\u000a    (fp_line (start 1.5 -3.7) (end -1 -3.7) (layer F.Fab) (width 0.15))\u000a    (fp_line (start 2 -4.2) (end 1.5 -3.7) (layer F.Fab) (width 0.15))\u000a    (fp_line (start -7 -6.2) (end -2.5 -6.2) (layer F.Fab) (width 0.15))\u000a    (fp_line (start -2 -6.7) (end -2 -7.7) (layer F.Fab) (width 0.15))\u000a    (fp_line (start -1.5 -8.2) (end -2 -7.7) (layer F.Fab) (width 0.15))\u000a    (fp_line (start -2.5 -1.5) (end -7 -1.5) (layer F.Fab) (width 0.15))\u000a    (fp_line (start -2.5 -2.2) (end -2.5 -1.5) (layer F.Fab) (width 0.15))\u000a    (fp_line (start 2 -4.25) (end 2 -7.7) (layer F.Fab) (width 0.12))\u000a    (fp_line (start -9.5 -5) (end -9.5 -2.5) (layer F.Fab) (width 0.12))\u000a    (fp_line (start 4.5 -7.25) (end 2 -7.25) (layer F.Fab) (width 0.12))\u000a    (fp_line (start 4.5 -4.75) (end 4.5 -7.25) (layer F.Fab) (width 0.12))\u000a    (fp_line (start 2 -4.75) (end 4.5 -4.75) (layer F.Fab) (width 0.12))\u000a    (fp_line (start -9.5 -2.5) (end -7 -2.5) (layer F.Fab) (width 0.12))\u000a    (fp_line (start 7 -5) (end 9.5 -5) (layer B.Fab) (width 0.12))\u000a    (fp_line (start 7 -1.5) (end 7 -6.2) (layer B.Fab) (width 0.12))\u000a    (fp_line (start -1.5 -8.2) (end 1.5 -8.2) (layer B.Fab) (width 0.15))\u000a    (fp_line (start -2 -7.7) (end -1.5 -8.2) (layer B.Fab) (width 0.15))\u000a    (fp_line (start -1.5 -3.7) (end 1 -3.7) (layer B.Fab) (width 0.15))\u000a    (fp_line (start -2 -4.2) (end -1.5 -3.7) (layer B.Fab) (width 0.15))\u000a    (fp_line (start 7 -6.2) (end 2.5 -6.2) (layer B.Fab) (width 0.15))\u000a    (fp_line (start 2 -6.7) (end 2 -7.7) (layer B.Fab) (width 0.15))\u000a    (fp_line (start 1.5 -8.2) (end 2 -7.7) (layer B.Fab) (width 0.15))\u000a    (fp_line (start 2.5 -1.5) (end 7 -1.5) (layer B.Fab) (width 0.15))\u000a    (fp_line (start 2.5 -2.2) (end 2.5 -1.5) (layer B.Fab) (width 0.15))\u000a    (fp_line (start -2 -4.25) (end -2 -7.7) (layer B.Fab) (width 0.12))\u000a    (fp_line (start 9.5 -5) (end 9.5 -2.5) (layer B.Fab) (width 0.12))\u000a    (fp_line (start -4.5 -7.25) (end -2 -7.25) (layer B.Fab) (width 0.12))\u000a    (fp_line (start -4.5 -4.75) (end -4.5 -7.25) (layer B.Fab) (width 0.12))\u000a    (fp_line (start -2 -4.75) (end -4.5 -4.75) (layer B.Fab) (width 0.12))\u000a    (fp_line (start 9.5 -2.5) (end 7 -2.5) (layer B.Fab) (width 0.12))\u000a    (fp_line (start -2.5 -2.2) (end -2.5 -1.5) (layer F.SilkS) (width 0.15))\u000a    (fp_line (start -2.5 -1.5) (end -7 -1.5) (layer F.SilkS) (width 0.15))\u000a    (fp_line (start -1.5 -8.2) (end -2 -7.7) (layer F.SilkS) (width 0.15))\u000a    (fp_line (start -2 -6.7) (end -2 -7.7) (layer F.SilkS) (width 0.15))\u000a    (fp_line (start -7 -6.2) (end -2.5 -6.2) (layer F.SilkS) (width 0.15))\u000a    (fp_line (start 2 -4.2) (end 1.5 -3.7) (layer F.SilkS) (width 0.15))\u000a    (fp_line (start -7 -5.6) (end -7 -6.2) (layer F.SilkS) (width 0.15))\u000a    (fp_line (start 1.5 -3.7) (end -1 -3.7) (layer F.SilkS) (width 0.15))\u000a    (fp_line (start 2 -7.7) (end 1.5 -8.2) (layer F.SilkS) (width 0.15))\u000a    (fp_line (start 1.5 -8.2) (end -1.5 -8.2) (layer F.SilkS) (width 0.15))\u000a    (fp_line (start -7 -1.5) (end -7 -2) (layer F.SilkS) (width 0.15))\u000a    (fp_line (start 2.5 -2.2) (end 2.5 -1.5) (layer B.SilkS) (width 0.15))\u000a    (fp_line (start 2.5 -1.5) (end 7 -1.5) (layer B.SilkS) (width 0.15))\u000a    (fp_line (start 1.5 -8.2) (end 2 -7.7) (layer B.SilkS) (width 0.15))\u000a    (fp_line (start 2 -6.7) (end 2 -7.7) (layer B.SilkS) (width 0.15))\u000a    (fp_line (start 7 -6.2) (end 2.5 -6.2) (layer B.SilkS) (width 0.15))\u000a    (fp_line (start -2 -4.2) (end -1.5 -3.7) (layer B.SilkS) (width 0.15))\u000a    (fp_line (start 7 -5.6) (end 7 -6.2) (layer B.SilkS) (width 0.15))\u000a    (fp_line (start -1.5 -3.7) (end 1 -3.7) (layer B.SilkS) (width 0.15))\u000a    (fp_line (start -2 -7.7) (end -1.5 -8.2) (layer B.SilkS) (width 0.15))\u000a    (fp_line (start -1.5 -8.2) (end 1.5 -8.2) (layer B.SilkS) (width 0.15))\u000a    (fp_line (start 7 -1.5) (end 7 -2) (layer B.SilkS) (width 0.15))\u000a    (fp_line (start -7 -7) (end -6 -7) (layer B.SilkS) (width 0.15))\u000a    (fp_line (start -7 -6) (end -7 -7) (layer B.SilkS) (width 0.15))\u000a    (fp_line (start 7 -7) (end 7 -6) (layer B.SilkS) (width 0.15))\u000a    (fp_line (start 6 -7) (end 7 -7) (layer B.SilkS) (width 0.15))\u000a    (fp_line (start 7 6) (end 7 7) (layer B.SilkS) (width 0.15))\u000a    (fp_line (start 7 7) (end 6 7) (layer B.SilkS) (width 0.15))\u000a    (fp_line (start -7 7) (end -7 6) (layer B.SilkS) (width 0.15))\u000a    (fp_line (start -6 7) (end -7 7) (layer B.SilkS) (width 0.15))\u000a    (fp_line (start -7.5 7.5) (end -7.5 -7.5) (layer B.Fab) (width 0.15))\u000a    (fp_line (start 7.5 7.5) (end -7.5 7.5) (layer B.Fab) (width 0.15))\u000a    (fp_line (start 7.5 -7.5) (end 7.5 7.5) (layer B.Fab) (width 0.15))\u000a    (fp_line (start -7.5 -7.5) (end 7.5 -7.5) (layer B.Fab) (width 0.15))\u000a    (fp_line (start -6.9 6.9) (end -6.9 -6.9) (layer Eco2.User) (width 0.15))\u000a    (fp_line (start 6.9 -6.9) (end 6.9 6.9) (layer Eco2.User) (width 0.15))\u000a    (fp_line (start 6.9 -6.9) (end -6.9 -6.9) (layer Eco2.User) (width 0.15))\u000a    (fp_line (start -6.9 6.9) (end 6.9 6.9) (layer Eco2.User) (width 0.15))\u000a    (fp_line (start 7 -7) (end 7 -6) (layer F.SilkS) (width 0.15))\u000a    (fp_line (start 6 -7) (end 7 -7) (layer F.SilkS) (width 0.15))\u000a    (fp_line (start 7 7) (end 6 7) (layer F.SilkS) (width 0.15))\u000a    (fp_line (start 7 6) (end 7 7) (layer F.SilkS) (width 0.15))\u000a    (fp_line (start -7 7) (end -7 6) (layer F.SilkS) (width 0.15))\u000a    (fp_line (start -6 7) (end -7 7) (layer F.SilkS) (width 0.15))\u000a    (fp_line (start -7 -7) (end -6 -7) (layer F.SilkS) (width 0.15))\u000a    (fp_line (start -7 -6) (end -7 -7) (layer F.SilkS) (width 0.15))\u000a    (fp_line (start -2.6 -3.1) (end -2.6 -6.3) (layer Eco2.User) (width 0.15))\u000a    (fp_line (start 2.6 -6.3) (end -2.6 -6.3) (layer Eco2.User) (width 0.15))\u000a    (fp_line (start 2.6 -3.1) (end 2.6 -6.3) (layer Eco2.User) (width 0.15))\u000a    (fp_line (start -2.6 -3.1) (end 2.6 -3.1) (layer Eco2.User) (width 0.15))\u000a    (fp_arc (start 2.5 -6.7) (end 2 -6.7) (angle -90) (layer B.SilkS) (width 0.15))\u000a    (fp_arc (start 1 -2.2) (end 2.5 -2.2) (angle -90) (layer B.SilkS) (width 0.15))\u000a    (fp_arc (start -2.5 -6.7) (end -2 -6.7) (angle 90) (layer F.SilkS) (width 0.15))\u000a    (fp_arc (start -1 -2.2) (end -2.5 -2.2) (angle 90) (layer F.SilkS) (width 0.15))\u000a    (fp_arc (start 1 -2.2) (end 2.5 -2.2) (angle -90) (layer B.Fab) (width 0.15))\u000a    (fp_arc (start 2.5 -6.7) (end 2 -6.7) (angle -90) (layer B.Fab) (width 0.15))\u000a    (fp_text user %R (at 3 -5 180) (layer B.Fab)\u000a      (effects (font (size 1 1) (thickness 0.15)) (justify mirror))\u000a    )\u000a    (fp_arc (start -1 -2.2) (end -2.5 -2.2) (angle 90) (layer F.Fab) (width 0.15))\u000a    (fp_arc (start -2.5 -6.7) (end -2 -6.7) (angle 90) (layer F.Fab) (width 0.15))\u000a    (fp_text user %R (at -2.25 -4.75) (layer F.Fab)\u000a      (effects (font (size 1 1) (thickness 0.15)))\u000a    )\u000a    (fp_text user %R (at 0 -8.89) (layer B.SilkS)\u000a      (effects (font (size 1 1) (thickness 0.15)) (justify mirror))\u000a    )\u000a    (fp_text user %V (at 0 8.255) (layer B.Fab)\u000a      (effects (font (size 1 1) (thickness 0.15)) (justify mirror))\u000a    )\u000a    (pad 2 thru_hole circle (at -5 3.8) (size 2.032 2.032) (drill 1.27) (layers *.Cu *.Mask)\u000a      (net 16 COL-A))\u000a    (pad 2 smd rect (at 8.275 -3.75) (size 2.6 2.6) (layers B.Cu B.Paste B.Mask)\u000a      (net 16 COL-A))\u000a    (pad 1 smd rect (at -3.275 -5.95) (size 2.6 2.6) (layers B.Cu B.Paste B.Mask)\u000a      (net 5 "Net-(D5-Pad2)"))\u000a    (pad "" np_thru_hole circle (at 5 -3.75) (size 3 3) (drill 3) (layers *.Cu *.Mask))\u000a    (pad 2 smd rect (at -8.275 -3.75) (size 2.6 2.6) (layers F.Cu F.Paste F.Mask)\u000a      (net 16 COL-A))\u000a    (pad "" np_thru_hole circle (at 0 -5.95) (size 3 3) (drill 3) (layers *.Cu *.Mask))\u000a    (pad 1 thru_hole circle (at 0 5.9) (size 2.032 2.032) (drill 1.27) (layers *.Cu *.Mask)\u000a      (net 5 "Net-(D5-Pad2)"))\u000a    (pad 2 thru_hole circle (at 5 3.8) (size 2.032 2.032) (drill 1.27) (layers *.Cu *.Mask)\u000a      (net 16 COL-A))\u000a    (pad "" np_thru_hole circle (at 0 0) (size 3.429 3.429) (drill 3.429) (layers *.Cu *.Mask))\u000a    (pad "" np_thru_hole circle (at -5 -3.75) (size 3 3) (drill 3) (layers *.Cu *.Mask))\u000a    (pad 1 smd rect (at 3.275 -5.95) (size 2.6 2.6) (layers F.Cu F.Paste F.Mask)\u000a      (net 5 "Net-(D5-Pad2)"))\u000a    (pad "" np_thru_hole circle (at 5.5 0) (size 1.7018 1.7018) (drill 1.7018) (layers *.Cu *.Mask))\u000a    (pad "" np_thru_hole circle (at -5.5 0) (size 1.7018 1.7018) (drill 1.7018) (layers *.Cu *.Mask))\u000a    (model /Users/wingtangwong/Documents/KICAD/LIBRARY/3D-MODELS/KAILH-KEY-SWITCH/PG1350-socket.STEP\u000a      (offset (xyz 10 6 -1.6))\u000a      (scale (xyz 1 1 1))\u000a      (rotate (xyz -90 0 0))\u000a    )\u000a    (model "/Users/wingtangwong/Documents/KICAD/LIBRARY/3D-MODELS/KAILH-KEY-SWITCH/kailh-low-profile-mechanical-keyboard-switch-1.snapshot.1/Kailh LP Choc Burnt Orange.STEP"\u000a      (offset (xyz 0 0 3))\u000a      (scale (xyz 1 1 1))\u000a      (rotate (xyz -90 0 -90))\u000a    )\u000a    (model "/Users/wingtangwong/Documents/KICAD/LIBRARY/3D-MODELS/KAILH-KEY-SWITCH/kailh-lp-choc-pc-keycap-1.snapshot.3/Kailh LP Choc PC Keycap.step"\u000a      (offset (xyz 0 0 3))\u000a      (scale (xyz 1 1 1))\u000a      (rotate (xyz 0 0 0))\u000a    )\u000a  )\u000a\u000a  (module WingCustomParts:Kailh_socket_PG1350_optional_reversible_with_3d (layer F.Cu) (tedit 6146BD52) (tstamp 6147A079)\u000a    (at -36.75 20)\u000a    (descr "Kailh \u005c"Choc\u005c" PG1350 keyswitch with optional socket mount, reversible")\u000a    (tags kailh,choc)\u000a    (path /6147F031/614851B3)\u000a    (fp_text reference KSW4 (at 0 -8.89) (layer F.SilkS)\u000a      (effects (font (size 1 1) (thickness 0.15)))\u000a    )\u000a    (fp_text value Kailh-Switch (at 0 8.255) (layer F.Fab)\u000a      (effects (font (size 1 1) (thickness 0.15)))\u000a    )\u000a    (fp_line (start -7.5 7.5) (end -7.5 -7.5) (layer F.Fab) (width 0.15))\u000a    (fp_line (start 7.5 7.5) (end -7.5 7.5) (layer F.Fab) (width 0.15))\u000a    (fp_line (start 7.5 -7.5) (end 7.5 7.5) (layer F.Fab) (width 0.15))\u000a    (fp_line (start -7.5 -7.5) (end 7.5 -7.5) (layer F.Fab) (width 0.15))\u000a    (fp_line (start -7 -5) (end -9.5 -5) (layer F.Fab) (width 0.12))\u000a    (fp_line (start -7 -1.5) (end -7 -6.2) (layer F.Fab) (width 0.12))\u000a    (fp_line (start 1.5 -8.2) (end -1.5 -8.2) (layer F.Fab) (width 0.15))\u000a    (fp_line (start 2 -7.7) (end 1.5 -8.2) (layer F.Fab) (width 0.15))\u000a    (fp_line (start 1.5 -3.7) (end -1 -3.7) (layer F.Fab) (width 0.15))\u000a    (fp_line (start 2 -4.2) (end 1.5 -3.7) (layer F.Fab) (width 0.15))\u000a    (fp_line (start -7 -6.2) (end -2.5 -6.2) (layer F.Fab) (width 0.15))\u000a    (fp_line (start -2 -6.7) (end -2 -7.7) (layer F.Fab) (width 0.15))\u000a    (fp_line (start -1.5 -8.2) (end -2 -7.7) (layer F.Fab) (width 0.15))\u000a    (fp_line (start -2.5 -1.5) (end -7 -1.5) (layer F.Fab) (width 0.15))\u000a    (fp_line (start -2.5 -2.2) (end -2.5 -1.5) (layer F.Fab) (width 0.15))\u000a    (fp_line (start 2 -4.25) (end 2 -7.7) (layer F.Fab) (width 0.12))\u000a    (fp_line (start -9.5 -5) (end -9.5 -2.5) (layer F.Fab) (width 0.12))\u000a    (fp_line (start 4.5 -7.25) (end 2 -7.25) (layer F.Fab) (width 0.12))\u000a    (fp_line (start 4.5 -4.75) (end 4.5 -7.25) (layer F.Fab) (width 0.12))\u000a    (fp_line (start 2 -4.75) (end 4.5 -4.75) (layer F.Fab) (width 0.12))\u000a    (fp_line (start -9.5 -2.5) (end -7 -2.5) (layer F.Fab) (width 0.12))\u000a    (fp_line (start 7 -5) (end 9.5 -5) (layer B.Fab) (width 0.12))\u000a    (fp_line (start 7 -1.5) (end 7 -6.2) (layer B.Fab) (width 0.12))\u000a    (fp_line (start -1.5 -8.2) (end 1.5 -8.2) (layer B.Fab) (width 0.15))\u000a    (fp_line (start -2 -7.7) (end -1.5 -8.2) (layer B.Fab) (width 0.15))\u000a    (fp_line (start -1.5 -3.7) (end 1 -3.7) (layer B.Fab) (width 0.15))\u000a    (fp_line (start -2 -4.2) (end -1.5 -3.7) (layer B.Fab) (width 0.15))\u000a    (fp_line (start 7 -6.2) (end 2.5 -6.2) (layer B.Fab) (width 0.15))\u000a    (fp_line (start 2 -6.7) (end 2 -7.7) (layer B.Fab) (width 0.15))\u000a    (fp_line (start 1.5 -8.2) (end 2 -7.7) (layer B.Fab) (width 0.15))\u000a    (fp_line (start 2.5 -1.5) (end 7 -1.5) (layer B.Fab) (width 0.15))\u000a    (fp_line (start 2.5 -2.2) (end 2.5 -1.5) (layer B.Fab) (width 0.15))\u000a    (fp_line (start -2 -4.25) (end -2 -7.7) (layer B.Fab) (width 0.12))\u000a    (fp_line (start 9.5 -5) (end 9.5 -2.5) (layer B.Fab) (width 0.12))\u000a    (fp_line (start -4.5 -7.25) (end -2 -7.25) (layer B.Fab) (width 0.12))\u000a    (fp_line (start -4.5 -4.75) (end -4.5 -7.25) (layer B.Fab) (width 0.12))\u000a    (fp_line (start -2 -4.75) (end -4.5 -4.75) (layer B.Fab) (width 0.12))\u000a    (fp_line (start 9.5 -2.5) (end 7 -2.5) (layer B.Fab) (width 0.12))\u000a    (fp_line (start -2.5 -2.2) (end -2.5 -1.5) (layer F.SilkS) (width 0.15))\u000a    (fp_line (start -2.5 -1.5) (end -7 -1.5) (layer F.SilkS) (width 0.15))\u000a    (fp_line (start -1.5 -8.2) (end -2 -7.7) (layer F.SilkS) (width 0.15))\u000a    (fp_line (start -2 -6.7) (end -2 -7.7) (layer F.SilkS) (width 0.15))\u000a    (fp_line (start -7 -6.2) (end -2.5 -6.2) (layer F.SilkS) (width 0.15))\u000a    (fp_line (start 2 -4.2) (end 1.5 -3.7) (layer F.SilkS) (width 0.15))\u000a    (fp_line (start -7 -5.6) (end -7 -6.2) (layer F.SilkS) (width 0.15))\u000a    (fp_line (start 1.5 -3.7) (end -1 -3.7) (layer F.SilkS) (width 0.15))\u000a    (fp_line (start 2 -7.7) (end 1.5 -8.2) (layer F.SilkS) (width 0.15))\u000a    (fp_line (start 1.5 -8.2) (end -1.5 -8.2) (layer F.SilkS) (width 0.15))\u000a    (fp_line (start -7 -1.5) (end -7 -2) (layer F.SilkS) (width 0.15))\u000a    (fp_line (start 2.5 -2.2) (end 2.5 -1.5) (layer B.SilkS) (width 0.15))\u000a    (fp_line (start 2.5 -1.5) (end 7 -1.5) (layer B.SilkS) (width 0.15))\u000a    (fp_line (start 1.5 -8.2) (end 2 -7.7) (layer B.SilkS) (width 0.15))\u000a    (fp_line (start 2 -6.7) (end 2 -7.7) (layer B.SilkS) (width 0.15))\u000a    (fp_line (start 7 -6.2) (end 2.5 -6.2) (layer B.SilkS) (width 0.15))\u000a    (fp_line (start -2 -4.2) (end -1.5 -3.7) (layer B.SilkS) (width 0.15))\u000a    (fp_line (start 7 -5.6) (end 7 -6.2) (layer B.SilkS) (width 0.15))\u000a    (fp_line (start -1.5 -3.7) (end 1 -3.7) (layer B.SilkS) (width 0.15))\u000a    (fp_line (start -2 -7.7) (end -1.5 -8.2) (layer B.SilkS) (width 0.15))\u000a    (fp_line (start -1.5 -8.2) (end 1.5 -8.2) (layer B.SilkS) (width 0.15))\u000a    (fp_line (start 7 -1.5) (end 7 -2) (layer B.SilkS) (width 0.15))\u000a    (fp_line (start -7 -7) (end -6 -7) (layer B.SilkS) (width 0.15))\u000a    (fp_line (start -7 -6) (end -7 -7) (layer B.SilkS) (width 0.15))\u000a    (fp_line (start 7 -7) (end 7 -6) (layer B.SilkS) (width 0.15))\u000a    (fp_line (start 6 -7) (end 7 -7) (layer B.SilkS) (width 0.15))\u000a    (fp_line (start 7 6) (end 7 7) (layer B.SilkS) (width 0.15))\u000a    (fp_line (start 7 7) (end 6 7) (layer B.SilkS) (width 0.15))\u000a    (fp_line (start -7 7) (end -7 6) (layer B.SilkS) (width 0.15))\u000a    (fp_line (start -6 7) (end -7 7) (layer B.SilkS) (width 0.15))\u000a    (fp_line (start -7.5 7.5) (end -7.5 -7.5) (layer B.Fab) (width 0.15))\u000a    (fp_line (start 7.5 7.5) (end -7.5 7.5) (layer B.Fab) (width 0.15))\u000a    (fp_line (start 7.5 -7.5) (end 7.5 7.5) (layer B.Fab) (width 0.15))\u000a    (fp_line (start -7.5 -7.5) (end 7.5 -7.5) (layer B.Fab) (width 0.15))\u000a    (fp_line (start -6.9 6.9) (end -6.9 -6.9) (layer Eco2.User) (width 0.15))\u000a    (fp_line (start 6.9 -6.9) (end 6.9 6.9) (layer Eco2.User) (width 0.15))\u000a    (fp_line (start 6.9 -6.9) (end -6.9 -6.9) (layer Eco2.User) (width 0.15))\u000a    (fp_line (start -6.9 6.9) (end 6.9 6.9) (layer Eco2.User) (width 0.15))\u000a    (fp_line (start 7 -7) (end 7 -6) (layer F.SilkS) (width 0.15))\u000a    (fp_line (start 6 -7) (end 7 -7) (layer F.SilkS) (width 0.15))\u000a    (fp_line (start 7 7) (end 6 7) (layer F.SilkS) (width 0.15))\u000a    (fp_line (start 7 6) (end 7 7) (layer F.SilkS) (width 0.15))\u000a    (fp_line (start -7 7) (end -7 6) (layer F.SilkS) (width 0.15))\u000a    (fp_line (start -6 7) (end -7 7) (layer F.SilkS) (width 0.15))\u000a    (fp_line (start -7 -7) (end -6 -7) (layer F.SilkS) (width 0.15))\u000a    (fp_line (start -7 -6) (end -7 -7) (layer F.SilkS) (width 0.15))\u000a    (fp_line (start -2.6 -3.1) (end -2.6 -6.3) (layer Eco2.User) (width 0.15))\u000a    (fp_line (start 2.6 -6.3) (end -2.6 -6.3) (layer Eco2.User) (width 0.15))\u000a    (fp_line (start 2.6 -3.1) (end 2.6 -6.3) (layer Eco2.User) (width 0.15))\u000a    (fp_line (start -2.6 -3.1) (end 2.6 -3.1) (layer Eco2.User) (width 0.15))\u000a    (fp_arc (start 2.5 -6.7) (end 2 -6.7) (angle -90) (layer B.SilkS) (width 0.15))\u000a    (fp_arc (start 1 -2.2) (end 2.5 -2.2) (angle -90) (layer B.SilkS) (width 0.15))\u000a    (fp_arc (start -2.5 -6.7) (end -2 -6.7) (angle 90) (layer F.SilkS) (width 0.15))\u000a    (fp_arc (start -1 -2.2) (end -2.5 -2.2) (angle 90) (layer F.SilkS) (width 0.15))\u000a    (fp_arc (start 1 -2.2) (end 2.5 -2.2) (angle -90) (layer B.Fab) (width 0.15))\u000a    (fp_arc (start 2.5 -6.7) (end 2 -6.7) (angle -90) (layer B.Fab) (width 0.15))\u000a    (fp_text user %R (at 3 -5 180) (layer B.Fab)\u000a      (effects (font (size 1 1) (thickness 0.15)) (justify mirror))\u000a    )\u000a    (fp_arc (start -1 -2.2) (end -2.5 -2.2) (angle 90) (layer F.Fab) (width 0.15))\u000a    (fp_arc (start -2.5 -6.7) (end -2 -6.7) (angle 90) (layer F.Fab) (width 0.15))\u000a    (fp_text user %R (at -2.25 -4.75) (layer F.Fab)\u000a      (effects (font (size 1 1) (thickness 0.15)))\u000a    )\u000a    (fp_text user %R (at 0 -8.89) (layer B.SilkS)\u000a      (effects (font (size 1 1) (thickness 0.15)) (justify mirror))\u000a    )\u000a    (fp_text user %V (at 0 8.255) (layer B.Fab)\u000a      (effects (font (size 1 1) (thickness 0.15)) (justify mirror))\u000a    )\u000a    (pad 2 thru_hole circle (at -5 3.8) (size 2.032 2.032) (drill 1.27) (layers *.Cu *.Mask)\u000a      (net 16 COL-A))\u000a    (pad 2 smd rect (at 8.275 -3.75) (size 2.6 2.6) (layers B.Cu B.Paste B.Mask)\u000a      (net 16 COL-A))\u000a    (pad 1 smd rect (at -3.275 -5.95) (size 2.6 2.6) (layers B.Cu B.Paste B.Mask)\u000a      (net 4 "Net-(D4-Pad2)"))\u000a    (pad "" np_thru_hole circle (at 5 -3.75) (size 3 3) (drill 3) (layers *.Cu *.Mask))\u000a    (pad 2 smd rect (at -8.275 -3.75) (size 2.6 2.6) (layers F.Cu F.Paste F.Mask)\u000a      (net 16 COL-A))\u000a    (pad "" np_thru_hole circle (at 0 -5.95) (size 3 3) (drill 3) (layers *.Cu *.Mask))\u000a    (pad 1 thru_hole circle (at 0 5.9) (size 2.032 2.032) (drill 1.27) (layers *.Cu *.Mask)\u000a      (net 4 "Net-(D4-Pad2)"))\u000a    (pad 2 thru_hole circle (at 5 3.8) (size 2.032 2.032) (drill 1.27) (layers *.Cu *.Mask)\u000a      (net 16 COL-A))\u000a    (pad "" np_thru_hole circle (at 0 0) (size 3.429 3.429) (drill 3.429) (layers *.Cu *.Mask))\u000a    (pad "" np_thru_hole circle (at -5 -3.75) (size 3 3) (drill 3) (layers *.Cu *.Mask))\u000a    (pad 1 smd rect (at 3.275 -5.95) (size 2.6 2.6) (layers F.Cu F.Paste F.Mask)\u000a      (net 4 "Net-(D4-Pad2)"))\u000a    (pad "" np_thru_hole circle (at 5.5 0) (size 1.7018 1.7018) (drill 1.7018) (layers *.Cu *.Mask))\u000a    (pad "" np_thru_hole circle (at -5.5 0) (size 1.7018 1.7018) (drill 1.7018) (layers *.Cu *.Mask))\u000a    (model /Users/wingtangwong/Documents/KICAD/LIBRARY/3D-MODELS/KAILH-KEY-SWITCH/PG1350-socket.STEP\u000a      (offset (xyz 10 6 -1.6))\u000a      (scale (xyz 1 1 1))\u000a      (rotate (xyz -90 0 0))\u000a    )\u000a    (model "/Users/wingtangwong/Documents/KICAD/LIBRARY/3D-MODELS/KAILH-KEY-SWITCH/kailh-low-profile-mechanical-keyboard-switch-1.snapshot.1/Kailh LP Choc Burnt Orange.STEP"\u000a      (offset (xyz 0 0 3))\u000a      (scale (xyz 1 1 1))\u000a      (rotate (xyz -90 0 -90))\u000a    )\u000a    (model "/Users/wingtangwong/Documents/KICAD/LIBRARY/3D-MODELS/KAILH-KEY-SWITCH/kailh-lp-choc-pc-keycap-1.snapshot.3/Kailh LP Choc PC Keycap.step"\u000a      (offset (xyz 0 0 3))\u000a      (scale (xyz 1 1 1))\u000a      (rotate (xyz 0 0 0))\u000a    )\u000a  )\u000a\u000a  (module WingCustomParts:Kailh_socket_PG1350_optional_reversible_with_3d (layer F.Cu) (tedit 6146BD52) (tstamp 6147A004)\u000a    (at -36.75 0)\u000a    (descr "Kailh \u005c"Choc\u005c" PG1350 keyswitch with optional socket mount, reversible")\u000a    (tags kailh,choc)\u000a    (path /6147F031/614851BF)\u000a    (fp_text reference KSW3 (at 0 -8.89) (layer F.SilkS)\u000a      (effects (font (size 1 1) (thickness 0.15)))\u000a    )\u000a    (fp_text value Kailh-Switch (at 0 8.255) (layer F.Fab)\u000a      (effects (font (size 1 1) (thickness 0.15)))\u000a    )\u000a    (fp_line (start -7.5 7.5) (end -7.5 -7.5) (layer F.Fab) (width 0.15))\u000a    (fp_line (start 7.5 7.5) (end -7.5 7.5) (layer F.Fab) (width 0.15))\u000a    (fp_line (start 7.5 -7.5) (end 7.5 7.5) (layer F.Fab) (width 0.15))\u000a    (fp_line (start -7.5 -7.5) (end 7.5 -7.5) (layer F.Fab) (width 0.15))\u000a    (fp_line (start -7 -5) (end -9.5 -5) (layer F.Fab) (width 0.12))\u000a    (fp_line (start -7 -1.5) (end -7 -6.2) (layer F.Fab) (width 0.12))\u000a    (fp_line (start 1.5 -8.2) (end -1.5 -8.2) (layer F.Fab) (width 0.15))\u000a    (fp_line (start 2 -7.7) (end 1.5 -8.2) (layer F.Fab) (width 0.15))\u000a    (fp_line (start 1.5 -3.7) (end -1 -3.7) (layer F.Fab) (width 0.15))\u000a    (fp_line (start 2 -4.2) (end 1.5 -3.7) (layer F.Fab) (width 0.15))\u000a    (fp_line (start -7 -6.2) (end -2.5 -6.2) (layer F.Fab) (width 0.15))\u000a    (fp_line (start -2 -6.7) (end -2 -7.7) (layer F.Fab) (width 0.15))\u000a    (fp_line (start -1.5 -8.2) (end -2 -7.7) (layer F.Fab) (width 0.15))\u000a    (fp_line (start -2.5 -1.5) (end -7 -1.5) (layer F.Fab) (width 0.15))\u000a    (fp_line (start -2.5 -2.2) (end -2.5 -1.5) (layer F.Fab) (width 0.15))\u000a    (fp_line (start 2 -4.25) (end 2 -7.7) (layer F.Fab) (width 0.12))\u000a    (fp_line (start -9.5 -5) (end -9.5 -2.5) (layer F.Fab) (width 0.12))\u000a    (fp_line (start 4.5 -7.25) (end 2 -7.25) (layer F.Fab) (width 0.12))\u000a    (fp_line (start 4.5 -4.75) (end 4.5 -7.25) (layer F.Fab) (width 0.12))\u000a    (fp_line (start 2 -4.75) (end 4.5 -4.75) (layer F.Fab) (width 0.12))\u000a    (fp_line (start -9.5 -2.5) (end -7 -2.5) (layer F.Fab) (width 0.12))\u000a    (fp_line (start 7 -5) (end 9.5 -5) (layer B.Fab) (width 0.12))\u000a    (fp_line (start 7 -1.5) (end 7 -6.2) (layer B.Fab) (width 0.12))\u000a    (fp_line (start -1.5 -8.2) (end 1.5 -8.2) (layer B.Fab) (width 0.15))\u000a    (fp_line (start -2 -7.7) (end -1.5 -8.2) (layer B.Fab) (width 0.15))\u000a    (fp_line (start -1.5 -3.7) (end 1 -3.7) (layer B.Fab) (width 0.15))\u000a    (fp_line (start -2 -4.2) (end -1.5 -3.7) (layer B.Fab) (width 0.15))\u000a    (fp_line (start 7 -6.2) (end 2.5 -6.2) (layer B.Fab) (width 0.15))\u000a    (fp_line (start 2 -6.7) (end 2 -7.7) (layer B.Fab) (width 0.15))\u000a    (fp_line (start 1.5 -8.2) (end 2 -7.7) (layer B.Fab) (width 0.15))\u000a    (fp_line (start 2.5 -1.5) (end 7 -1.5) (layer B.Fab) (width 0.15))\u000a    (fp_line (start 2.5 -2.2) (end 2.5 -1.5) (layer B.Fab) (width 0.15))\u000a    (fp_line (start -2 -4.25) (end -2 -7.7) (layer B.Fab) (width 0.12))\u000a    (fp_line (start 9.5 -5) (end 9.5 -2.5) (layer B.Fab) (width 0.12))\u000a    (fp_line (start -4.5 -7.25) (end -2 -7.25) (layer B.Fab) (width 0.12))\u000a    (fp_line (start -4.5 -4.75) (end -4.5 -7.25) (layer B.Fab) (width 0.12))\u000a    (fp_line (start -2 -4.75) (end -4.5 -4.75) (layer B.Fab) (width 0.12))\u000a    (fp_line (start 9.5 -2.5) (end 7 -2.5) (layer B.Fab) (width 0.12))\u000a    (fp_line (start -2.5 -2.2) (end -2.5 -1.5) (layer F.SilkS) (width 0.15))\u000a    (fp_line (start -2.5 -1.5) (end -7 -1.5) (layer F.SilkS) (width 0.15))\u000a    (fp_line (start -1.5 -8.2) (end -2 -7.7) (layer F.SilkS) (width 0.15))\u000a    (fp_line (start -2 -6.7) (end -2 -7.7) (layer F.SilkS) (width 0.15))\u000a    (fp_line (start -7 -6.2) (end -2.5 -6.2) (layer F.SilkS) (width 0.15))\u000a    (fp_line (start 2 -4.2) (end 1.5 -3.7) (layer F.SilkS) (width 0.15))\u000a    (fp_line (start -7 -5.6) (end -7 -6.2) (layer F.SilkS) (width 0.15))\u000a    (fp_line (start 1.5 -3.7) (end -1 -3.7) (layer F.SilkS) (width 0.15))\u000a    (fp_line (start 2 -7.7) (end 1.5 -8.2) (layer F.SilkS) (width 0.15))\u000a    (fp_line (start 1.5 -8.2) (end -1.5 -8.2) (layer F.SilkS) (width 0.15))\u000a    (fp_line (start -7 -1.5) (end -7 -2) (layer F.SilkS) (width 0.15))\u000a    (fp_line (start 2.5 -2.2) (end 2.5 -1.5) (layer B.SilkS) (width 0.15))\u000a    (fp_line (start 2.5 -1.5) (end 7 -1.5) (layer B.SilkS) (width 0.15))\u000a    (fp_line (start 1.5 -8.2) (end 2 -7.7) (layer B.SilkS) (width 0.15))\u000a    (fp_line (start 2 -6.7) (end 2 -7.7) (layer B.SilkS) (width 0.15))\u000a    (fp_line (start 7 -6.2) (end 2.5 -6.2) (layer B.SilkS) (width 0.15))\u000a    (fp_line (start -2 -4.2) (end -1.5 -3.7) (layer B.SilkS) (width 0.15))\u000a    (fp_line (start 7 -5.6) (end 7 -6.2) (layer B.SilkS) (width 0.15))\u000a    (fp_line (start -1.5 -3.7) (end 1 -3.7) (layer B.SilkS) (width 0.15))\u000a    (fp_line (start -2 -7.7) (end -1.5 -8.2) (layer B.SilkS) (width 0.15))\u000a    (fp_line (start -1.5 -8.2) (end 1.5 -8.2) (layer B.SilkS) (width 0.15))\u000a    (fp_line (start 7 -1.5) (end 7 -2) (layer B.SilkS) (width 0.15))\u000a    (fp_line (start -7 -7) (end -6 -7) (layer B.SilkS) (width 0.15))\u000a    (fp_line (start -7 -6) (end -7 -7) (layer B.SilkS) (width 0.15))\u000a    (fp_line (start 7 -7) (end 7 -6) (layer B.SilkS) (width 0.15))\u000a    (fp_line (start 6 -7) (end 7 -7) (layer B.SilkS) (width 0.15))\u000a    (fp_line (start 7 6) (end 7 7) (layer B.SilkS) (width 0.15))\u000a    (fp_line (start 7 7) (end 6 7) (layer B.SilkS) (width 0.15))\u000a    (fp_line (start -7 7) (end -7 6) (layer B.SilkS) (width 0.15))\u000a    (fp_line (start -6 7) (end -7 7) (layer B.SilkS) (width 0.15))\u000a    (fp_line (start -7.5 7.5) (end -7.5 -7.5) (layer B.Fab) (width 0.15))\u000a    (fp_line (start 7.5 7.5) (end -7.5 7.5) (layer B.Fab) (width 0.15))\u000a    (fp_line (start 7.5 -7.5) (end 7.5 7.5) (layer B.Fab) (width 0.15))\u000a    (fp_line (start -7.5 -7.5) (end 7.5 -7.5) (layer B.Fab) (width 0.15))\u000a    (fp_line (start -6.9 6.9) (end -6.9 -6.9) (layer Eco2.User) (width 0.15))\u000a    (fp_line (start 6.9 -6.9) (end 6.9 6.9) (layer Eco2.User) (width 0.15))\u000a    (fp_line (start 6.9 -6.9) (end -6.9 -6.9) (layer Eco2.User) (width 0.15))\u000a    (fp_line (start -6.9 6.9) (end 6.9 6.9) (layer Eco2.User) (width 0.15))\u000a    (fp_line (start 7 -7) (end 7 -6) (layer F.SilkS) (width 0.15))\u000a    (fp_line (start 6 -7) (end 7 -7) (layer F.SilkS) (width 0.15))\u000a    (fp_line (start 7 7) (end 6 7) (layer F.SilkS) (width 0.15))\u000a    (fp_line (start 7 6) (end 7 7) (layer F.SilkS) (width 0.15))\u000a    (fp_line (start -7 7) (end -7 6) (layer F.SilkS) (width 0.15))\u000a    (fp_line (start -6 7) (end -7 7) (layer F.SilkS) (width 0.15))\u000a    (fp_line (start -7 -7) (end -6 -7) (layer F.SilkS) (width 0.15))\u000a    (fp_line (start -7 -6) (end -7 -7) (layer F.SilkS) (width 0.15))\u000a    (fp_line (start -2.6 -3.1) (end -2.6 -6.3) (layer Eco2.User) (width 0.15))\u000a    (fp_line (start 2.6 -6.3) (end -2.6 -6.3) (layer Eco2.User) (width 0.15))\u000a    (fp_line (start 2.6 -3.1) (end 2.6 -6.3) (layer Eco2.User) (width 0.15))\u000a    (fp_line (start -2.6 -3.1) (end 2.6 -3.1) (layer Eco2.User) (width 0.15))\u000a    (fp_arc (start 2.5 -6.7) (end 2 -6.7) (angle -90) (layer B.SilkS) (width 0.15))\u000a    (fp_arc (start 1 -2.2) (end 2.5 -2.2) (angle -90) (layer B.SilkS) (width 0.15))\u000a    (fp_arc (start -2.5 -6.7) (end -2 -6.7) (angle 90) (layer F.SilkS) (width 0.15))\u000a    (fp_arc (start -1 -2.2) (end -2.5 -2.2) (angle 90) (layer F.SilkS) (width 0.15))\u000a    (fp_arc (start 1 -2.2) (end 2.5 -2.2) (angle -90) (layer B.Fab) (width 0.15))\u000a    (fp_arc (start 2.5 -6.7) (end 2 -6.7) (angle -90) (layer B.Fab) (width 0.15))\u000a    (fp_text user %R (at 3 -5 180) (layer B.Fab)\u000a      (effects (font (size 1 1) (thickness 0.15)) (justify mirror))\u000a    )\u000a    (fp_arc (start -1 -2.2) (end -2.5 -2.2) (angle 90) (layer F.Fab) (width 0.15))\u000a    (fp_arc (start -2.5 -6.7) (end -2 -6.7) (angle 90) (layer F.Fab) (width 0.15))\u000a    (fp_text user %R (at -2.25 -4.75) (layer F.Fab)\u000a      (effects (font (size 1 1) (thickness 0.15)))\u000a    )\u000a    (fp_text user %R (at 0 -8.89) (layer B.SilkS)\u000a      (effects (font (size 1 1) (thickness 0.15)) (justify mirror))\u000a    )\u000a    (fp_text user %V (at 0 8.255) (layer B.Fab)\u000a      (effects (font (size 1 1) (thickness 0.15)) (justify mirror))\u000a    )\u000a    (pad 2 thru_hole circle (at -5 3.8) (size 2.032 2.032) (drill 1.27) (layers *.Cu *.Mask)\u000a      (net 16 COL-A))\u000a    (pad 2 smd rect (at 8.275 -3.75) (size 2.6 2.6) (layers B.Cu B.Paste B.Mask)\u000a      (net 16 COL-A))\u000a    (pad 1 smd rect (at -3.275 -5.95) (size 2.6 2.6) (layers B.Cu B.Paste B.Mask)\u000a      (net 3 "Net-(D3-Pad2)"))\u000a    (pad "" np_thru_hole circle (at 5 -3.75) (size 3 3) (drill 3) (layers *.Cu *.Mask))\u000a    (pad 2 smd rect (at -8.275 -3.75) (size 2.6 2.6) (layers F.Cu F.Paste F.Mask)\u000a      (net 16 COL-A))\u000a    (pad "" np_thru_hole circle (at 0 -5.95) (size 3 3) (drill 3) (layers *.Cu *.Mask))\u000a    (pad 1 thru_hole circle (at 0 5.9) (size 2.032 2.032) (drill 1.27) (layers *.Cu *.Mask)\u000a      (net 3 "Net-(D3-Pad2)"))\u000a    (pad 2 thru_hole circle (at 5 3.8) (size 2.032 2.032) (drill 1.27) (layers *.Cu *.Mask)\u000a      (net 16 COL-A))\u000a    (pad "" np_thru_hole circle (at 0 0) (size 3.429 3.429) (drill 3.429) (layers *.Cu *.Mask))\u000a    (pad "" np_thru_hole circle (at -5 -3.75) (size 3 3) (drill 3) (layers *.Cu *.Mask))\u000a    (pad 1 smd rect (at 3.275 -5.95) (size 2.6 2.6) (layers F.Cu F.Paste F.Mask)\u000a      (net 3 "Net-(D3-Pad2)"))\u000a    (pad "" np_thru_hole circle (at 5.5 0) (size 1.7018 1.7018) (drill 1.7018) (layers *.Cu *.Mask))\u000a    (pad "" np_thru_hole circle (at -5.5 0) (size 1.7018 1.7018) (drill 1.7018) (layers *.Cu *.Mask))\u000a    (model /Users/wingtangwong/Documents/KICAD/LIBRARY/3D-MODELS/KAILH-KEY-SWITCH/PG1350-socket.STEP\u000a      (offset (xyz 10 6 -1.6))\u000a      (scale (xyz 1 1 1))\u000a      (rotate (xyz -90 0 0))\u000a    )\u000a    (model "/Users/wingtangwong/Documents/KICAD/LIBRARY/3D-MODELS/KAILH-KEY-SWITCH/kailh-low-profile-mechanical-keyboard-switch-1.snapshot.1/Kailh LP Choc Burnt Orange.STEP"\u000a      (offset (xyz 0 0 3))\u000a      (scale (xyz 1 1 1))\u000a      (rotate (xyz -90 0 -90))\u000a    )\u000a    (model "/Users/wingtangwong/Documents/KICAD/LIBRARY/3D-MODELS/KAILH-KEY-SWITCH/kailh-lp-choc-pc-keycap-1.snapshot.3/Kailh LP Choc PC Keycap.step"\u000a      (offset (xyz 0 0 3))\u000a      (scale (xyz 1 1 1))\u000a      (rotate (xyz 0 0 0))\u000a    )\u000a  )\u000a\u000a  (module WingCustomParts:Kailh_socket_PG1350_optional_reversible_with_3d (layer F.Cu) (tedit 6146BD52) (tstamp 61479F8F)\u000a    (at -36.75 -20)\u000a    (descr "Kailh \u005c"Choc\u005c" PG1350 keyswitch with optional socket mount, reversible")\u000a    (tags kailh,choc)\u000a    (path /6147F031/614851B9)\u000a    (fp_text reference KSW2 (at 0 -8.89) (layer F.SilkS)\u000a      (effects (font (size 1 1) (thickness 0.15)))\u000a    )\u000a    (fp_text value Kailh-Switch (at 0 8.255) (layer F.Fab)\u000a      (effects (font (size 1 1) (thickness 0.15)))\u000a    )\u000a    (fp_line (start -7.5 7.5) (end -7.5 -7.5) (layer F.Fab) (width 0.15))\u000a    (fp_line (start 7.5 7.5) (end -7.5 7.5) (layer F.Fab) (width 0.15))\u000a    (fp_line (start 7.5 -7.5) (end 7.5 7.5) (layer F.Fab) (width 0.15))\u000a    (fp_line (start -7.5 -7.5) (end 7.5 -7.5) (layer F.Fab) (width 0.15))\u000a    (fp_line (start -7 -5) (end -9.5 -5) (layer F.Fab) (width 0.12))\u000a    (fp_line (start -7 -1.5) (end -7 -6.2) (layer F.Fab) (width 0.12))\u000a    (fp_line (start 1.5 -8.2) (end -1.5 -8.2) (layer F.Fab) (width 0.15))\u000a    (fp_line (start 2 -7.7) (end 1.5 -8.2) (layer F.Fab) (width 0.15))\u000a    (fp_line (start 1.5 -3.7) (end -1 -3.7) (layer F.Fab) (width 0.15))\u000a    (fp_line (start 2 -4.2) (end 1.5 -3.7) (layer F.Fab) (width 0.15))\u000a    (fp_line (start -7 -6.2) (end -2.5 -6.2) (layer F.Fab) (width 0.15))\u000a    (fp_line (start -2 -6.7) (end -2 -7.7) (layer F.Fab) (width 0.15))\u000a    (fp_line (start -1.5 -8.2) (end -2 -7.7) (layer F.Fab) (width 0.15))\u000a    (fp_line (start -2.5 -1.5) (end -7 -1.5) (layer F.Fab) (width 0.15))\u000a    (fp_line (start -2.5 -2.2) (end -2.5 -1.5) (layer F.Fab) (width 0.15))\u000a    (fp_line (start 2 -4.25) (end 2 -7.7) (layer F.Fab) (width 0.12))\u000a    (fp_line (start -9.5 -5) (end -9.5 -2.5) (layer F.Fab) (width 0.12))\u000a    (fp_line (start 4.5 -7.25) (end 2 -7.25) (layer F.Fab) (width 0.12))\u000a    (fp_line (start 4.5 -4.75) (end 4.5 -7.25) (layer F.Fab) (width 0.12))\u000a    (fp_line (start 2 -4.75) (end 4.5 -4.75) (layer F.Fab) (width 0.12))\u000a    (fp_line (start -9.5 -2.5) (end -7 -2.5) (layer F.Fab) (width 0.12))\u000a    (fp_line (start 7 -5) (end 9.5 -5) (layer B.Fab) (width 0.12))\u000a    (fp_line (start 7 -1.5) (end 7 -6.2) (layer B.Fab) (width 0.12))\u000a    (fp_line (start -1.5 -8.2) (end 1.5 -8.2) (layer B.Fab) (width 0.15))\u000a    (fp_line (start -2 -7.7) (end -1.5 -8.2) (layer B.Fab) (width 0.15))\u000a    (fp_line (start -1.5 -3.7) (end 1 -3.7) (layer B.Fab) (width 0.15))\u000a    (fp_line (start -2 -4.2) (end -1.5 -3.7) (layer B.Fab) (width 0.15))\u000a    (fp_line (start 7 -6.2) (end 2.5 -6.2) (layer B.Fab) (width 0.15))\u000a    (fp_line (start 2 -6.7) (end 2 -7.7) (layer B.Fab) (width 0.15))\u000a    (fp_line (start 1.5 -8.2) (end 2 -7.7) (layer B.Fab) (width 0.15))\u000a    (fp_line (start 2.5 -1.5) (end 7 -1.5) (layer B.Fab) (width 0.15))\u000a    (fp_line (start 2.5 -2.2) (end 2.5 -1.5) (layer B.Fab) (width 0.15))\u000a    (fp_line (start -2 -4.25) (end -2 -7.7) (layer B.Fab) (width 0.12))\u000a    (fp_line (start 9.5 -5) (end 9.5 -2.5) (layer B.Fab) (width 0.12))\u000a    (fp_line (start -4.5 -7.25) (end -2 -7.25) (layer B.Fab) (width 0.12))\u000a    (fp_line (start -4.5 -4.75) (end -4.5 -7.25) (layer B.Fab) (width 0.12))\u000a    (fp_line (start -2 -4.75) (end -4.5 -4.75) (layer B.Fab) (width 0.12))\u000a    (fp_line (start 9.5 -2.5) (end 7 -2.5) (layer B.Fab) (width 0.12))\u000a    (fp_line (start -2.5 -2.2) (end -2.5 -1.5) (layer F.SilkS) (width 0.15))\u000a    (fp_line (start -2.5 -1.5) (end -7 -1.5) (layer F.SilkS) (width 0.15))\u000a    (fp_line (start -1.5 -8.2) (end -2 -7.7) (layer F.SilkS) (width 0.15))\u000a    (fp_line (start -2 -6.7) (end -2 -7.7) (layer F.SilkS) (width 0.15))\u000a    (fp_line (start -7 -6.2) (end -2.5 -6.2) (layer F.SilkS) (width 0.15))\u000a    (fp_line (start 2 -4.2) (end 1.5 -3.7) (layer F.SilkS) (width 0.15))\u000a    (fp_line (start -7 -5.6) (end -7 -6.2) (layer F.SilkS) (width 0.15))\u000a    (fp_line (start 1.5 -3.7) (end -1 -3.7) (layer F.SilkS) (width 0.15))\u000a    (fp_line (start 2 -7.7) (end 1.5 -8.2) (layer F.SilkS) (width 0.15))\u000a    (fp_line (start 1.5 -8.2) (end -1.5 -8.2) (layer F.SilkS) (width 0.15))\u000a    (fp_line (start -7 -1.5) (end -7 -2) (layer F.SilkS) (width 0.15))\u000a    (fp_line (start 2.5 -2.2) (end 2.5 -1.5) (layer B.SilkS) (width 0.15))\u000a    (fp_line (start 2.5 -1.5) (end 7 -1.5) (layer B.SilkS) (width 0.15))\u000a    (fp_line (start 1.5 -8.2) (end 2 -7.7) (layer B.SilkS) (width 0.15))\u000a    (fp_line (start 2 -6.7) (end 2 -7.7) (layer B.SilkS) (width 0.15))\u000a    (fp_line (start 7 -6.2) (end 2.5 -6.2) (layer B.SilkS) (width 0.15))\u000a    (fp_line (start -2 -4.2) (end -1.5 -3.7) (layer B.SilkS) (width 0.15))\u000a    (fp_line (start 7 -5.6) (end 7 -6.2) (layer B.SilkS) (width 0.15))\u000a    (fp_line (start -1.5 -3.7) (end 1 -3.7) (layer B.SilkS) (width 0.15))\u000a    (fp_line (start -2 -7.7) (end -1.5 -8.2) (layer B.SilkS) (width 0.15))\u000a    (fp_line (start -1.5 -8.2) (end 1.5 -8.2) (layer B.SilkS) (width 0.15))\u000a    (fp_line (start 7 -1.5) (end 7 -2) (layer B.SilkS) (width 0.15))\u000a    (fp_line (start -7 -7) (end -6 -7) (layer B.SilkS) (width 0.15))\u000a    (fp_line (start -7 -6) (end -7 -7) (layer B.SilkS) (width 0.15))\u000a    (fp_line (start 7 -7) (end 7 -6) (layer B.SilkS) (width 0.15))\u000a    (fp_line (start 6 -7) (end 7 -7) (layer B.SilkS) (width 0.15))\u000a    (fp_line (start 7 6) (end 7 7) (layer B.SilkS) (width 0.15))\u000a    (fp_line (start 7 7) (end 6 7) (layer B.SilkS) (width 0.15))\u000a    (fp_line (start -7 7) (end -7 6) (layer B.SilkS) (width 0.15))\u000a    (fp_line (start -6 7) (end -7 7) (layer B.SilkS) (width 0.15))\u000a    (fp_line (start -7.5 7.5) (end -7.5 -7.5) (layer B.Fab) (width 0.15))\u000a    (fp_line (start 7.5 7.5) (end -7.5 7.5) (layer B.Fab) (width 0.15))\u000a    (fp_line (start 7.5 -7.5) (end 7.5 7.5) (layer B.Fab) (width 0.15))\u000a    (fp_line (start -7.5 -7.5) (end 7.5 -7.5) (layer B.Fab) (width 0.15))\u000a    (fp_line (start -6.9 6.9) (end -6.9 -6.9) (layer Eco2.User) (width 0.15))\u000a    (fp_line (start 6.9 -6.9) (end 6.9 6.9) (layer Eco2.User) (width 0.15))\u000a    (fp_line (start 6.9 -6.9) (end -6.9 -6.9) (layer Eco2.User) (width 0.15))\u000a    (fp_line (start -6.9 6.9) (end 6.9 6.9) (layer Eco2.User) (width 0.15))\u000a    (fp_line (start 7 -7) (end 7 -6) (layer F.SilkS) (width 0.15))\u000a    (fp_line (start 6 -7) (end 7 -7) (layer F.SilkS) (width 0.15))\u000a    (fp_line (start 7 7) (end 6 7) (layer F.SilkS) (width 0.15))\u000a    (fp_line (start 7 6) (end 7 7) (layer F.SilkS) (width 0.15))\u000a    (fp_line (start -7 7) (end -7 6) (layer F.SilkS) (width 0.15))\u000a    (fp_line (start -6 7) (end -7 7) (layer F.SilkS) (width 0.15))\u000a    (fp_line (start -7 -7) (end -6 -7) (layer F.SilkS) (width 0.15))\u000a    (fp_line (start -7 -6) (end -7 -7) (layer F.SilkS) (width 0.15))\u000a    (fp_line (start -2.6 -3.1) (end -2.6 -6.3) (layer Eco2.User) (width 0.15))\u000a    (fp_line (start 2.6 -6.3) (end -2.6 -6.3) (layer Eco2.User) (width 0.15))\u000a    (fp_line (start 2.6 -3.1) (end 2.6 -6.3) (layer Eco2.User) (width 0.15))\u000a    (fp_line (start -2.6 -3.1) (end 2.6 -3.1) (layer Eco2.User) (width 0.15))\u000a    (fp_arc (start 2.5 -6.7) (end 2 -6.7) (angle -90) (layer B.SilkS) (width 0.15))\u000a    (fp_arc (start 1 -2.2) (end 2.5 -2.2) (angle -90) (layer B.SilkS) (width 0.15))\u000a    (fp_arc (start -2.5 -6.7) (end -2 -6.7) (angle 90) (layer F.SilkS) (width 0.15))\u000a    (fp_arc (start -1 -2.2) (end -2.5 -2.2) (angle 90) (layer F.SilkS) (width 0.15))\u000a    (fp_arc (start 1 -2.2) (end 2.5 -2.2) (angle -90) (layer B.Fab) (width 0.15))\u000a    (fp_arc (start 2.5 -6.7) (end 2 -6.7) (angle -90) (layer B.Fab) (width 0.15))\u000a    (fp_text user %R (at 3 -5 180) (layer B.Fab)\u000a      (effects (font (size 1 1) (thickness 0.15)) (justify mirror))\u000a    )\u000a    (fp_arc (start -1 -2.2) (end -2.5 -2.2) (angle 90) (layer F.Fab) (width 0.15))\u000a    (fp_arc (start -2.5 -6.7) (end -2 -6.7) (angle 90) (layer F.Fab) (width 0.15))\u000a    (fp_text user %R (at -2.25 -4.75) (layer F.Fab)\u000a      (effects (font (size 1 1) (thickness 0.15)))\u000a    )\u000a    (fp_text user %R (at 0 -8.89) (layer B.SilkS)\u000a      (effects (font (size 1 1) (thickness 0.15)) (justify mirror))\u000a    )\u000a    (fp_text user %V (at 0 8.255) (layer B.Fab)\u000a      (effects (font (size 1 1) (thickness 0.15)) (justify mirror))\u000a    )\u000a    (pad 2 thru_hole circle (at -5 3.8) (size 2.032 2.032) (drill 1.27) (layers *.Cu *.Mask)\u000a      (net 16 COL-A))\u000a    (pad 2 smd rect (at 8.275 -3.75) (size 2.6 2.6) (layers B.Cu B.Paste B.Mask)\u000a      (net 16 COL-A))\u000a    (pad 1 smd rect (at -3.275 -5.95) (size 2.6 2.6) (layers B.Cu B.Paste B.Mask)\u000a      (net 2 "Net-(D2-Pad2)"))\u000a    (pad "" np_thru_hole circle (at 5 -3.75) (size 3 3) (drill 3) (layers *.Cu *.Mask))\u000a    (pad 2 smd rect (at -8.275 -3.75) (size 2.6 2.6) (layers F.Cu F.Paste F.Mask)\u000a      (net 16 COL-A))\u000a    (pad "" np_thru_hole circle (at 0 -5.95) (size 3 3) (drill 3) (layers *.Cu *.Mask))\u000a    (pad 1 thru_hole circle (at 0 5.9) (size 2.032 2.032) (drill 1.27) (layers *.Cu *.Mask)\u000a      (net 2 "Net-(D2-Pad2)"))\u000a    (pad 2 thru_hole circle (at 5 3.8) (size 2.032 2.032) (drill 1.27) (layers *.Cu *.Mask)\u000a      (net 16 COL-A))\u000a    (pad "" np_thru_hole circle (at 0 0) (size 3.429 3.429) (drill 3.429) (layers *.Cu *.Mask))\u000a    (pad "" np_thru_hole circle (at -5 -3.75) (size 3 3) (drill 3) (layers *.Cu *.Mask))\u000a    (pad 1 smd rect (at 3.275 -5.95) (size 2.6 2.6) (layers F.Cu F.Paste F.Mask)\u000a      (net 2 "Net-(D2-Pad2)"))\u000a    (pad "" np_thru_hole circle (at 5.5 0) (size 1.7018 1.7018) (drill 1.7018) (layers *.Cu *.Mask))\u000a    (pad "" np_thru_hole circle (at -5.5 0) (size 1.7018 1.7018) (drill 1.7018) (layers *.Cu *.Mask))\u000a    (model /Users/wingtangwong/Documents/KICAD/LIBRARY/3D-MODELS/KAILH-KEY-SWITCH/PG1350-socket.STEP\u000a      (offset (xyz 10 6 -1.6))\u000a      (scale (xyz 1 1 1))\u000a      (rotate (xyz -90 0 0))\u000a    )\u000a    (model "/Users/wingtangwong/Documents/KICAD/LIBRARY/3D-MODELS/KAILH-KEY-SWITCH/kailh-low-profile-mechanical-keyboard-switch-1.snapshot.1/Kailh LP Choc Burnt Orange.STEP"\u000a      (offset (xyz 0 0 3))\u000a      (scale (xyz 1 1 1))\u000a      (rotate (xyz -90 0 -90))\u000a    )\u000a    (model "/Users/wingtangwong/Documents/KICAD/LIBRARY/3D-MODELS/KAILH-KEY-SWITCH/kailh-lp-choc-pc-keycap-1.snapshot.3/Kailh LP Choc PC Keycap.step"\u000a      (offset (xyz 0 0 3))\u000a      (scale (xyz 1 1 1))\u000a      (rotate (xyz 0 0 0))\u000a    )\u000a  )\u000a\u000a  (module WingCustomParts:Kailh_socket_PG1350_optional_reversible_with_3d (layer F.Cu) (tedit 6146BD52) (tstamp 6147AA31)\u000a    (at -36.75 -40)\u000a    (descr "Kailh \u005c"Choc\u005c" PG1350 keyswitch with optional socket mount, reversible")\u000a    (tags kailh,choc)\u000a    (path /6147F031/6148519B)\u000a    (fp_text reference KSW1 (at 0 -8.89) (layer F.SilkS)\u000a      (effects (font (size 1 1) (thickness 0.15)))\u000a    )\u000a    (fp_text value Kailh-Switch (at 0 8.255) (layer F.Fab)\u000a      (effects (font (size 1 1) (thickness 0.15)))\u000a    )\u000a    (fp_line (start -7.5 7.5) (end -7.5 -7.5) (layer F.Fab) (width 0.15))\u000a    (fp_line (start 7.5 7.5) (end -7.5 7.5) (layer F.Fab) (width 0.15))\u000a    (fp_line (start 7.5 -7.5) (end 7.5 7.5) (layer F.Fab) (width 0.15))\u000a    (fp_line (start -7.5 -7.5) (end 7.5 -7.5) (layer F.Fab) (width 0.15))\u000a    (fp_line (start -7 -5) (end -9.5 -5) (layer F.Fab) (width 0.12))\u000a    (fp_line (start -7 -1.5) (end -7 -6.2) (layer F.Fab) (width 0.12))\u000a    (fp_line (start 1.5 -8.2) (end -1.5 -8.2) (layer F.Fab) (width 0.15))\u000a    (fp_line (start 2 -7.7) (end 1.5 -8.2) (layer F.Fab) (width 0.15))\u000a    (fp_line (start 1.5 -3.7) (end -1 -3.7) (layer F.Fab) (width 0.15))\u000a    (fp_line (start 2 -4.2) (end 1.5 -3.7) (layer F.Fab) (width 0.15))\u000a    (fp_line (start -7 -6.2) (end -2.5 -6.2) (layer F.Fab) (width 0.15))\u000a    (fp_line (start -2 -6.7) (end -2 -7.7) (layer F.Fab) (width 0.15))\u000a    (fp_line (start -1.5 -8.2) (end -2 -7.7) (layer F.Fab) (width 0.15))\u000a    (fp_line (start -2.5 -1.5) (end -7 -1.5) (layer F.Fab) (width 0.15))\u000a    (fp_line (start -2.5 -2.2) (end -2.5 -1.5) (layer F.Fab) (width 0.15))\u000a    (fp_line (start 2 -4.25) (end 2 -7.7) (layer F.Fab) (width 0.12))\u000a    (fp_line (start -9.5 -5) (end -9.5 -2.5) (layer F.Fab) (width 0.12))\u000a    (fp_line (start 4.5 -7.25) (end 2 -7.25) (layer F.Fab) (width 0.12))\u000a    (fp_line (start 4.5 -4.75) (end 4.5 -7.25) (layer F.Fab) (width 0.12))\u000a    (fp_line (start 2 -4.75) (end 4.5 -4.75) (layer F.Fab) (width 0.12))\u000a    (fp_line (start -9.5 -2.5) (end -7 -2.5) (layer F.Fab) (width 0.12))\u000a    (fp_line (start 7 -5) (end 9.5 -5) (layer B.Fab) (width 0.12))\u000a    (fp_line (start 7 -1.5) (end 7 -6.2) (layer B.Fab) (width 0.12))\u000a    (fp_line (start -1.5 -8.2) (end 1.5 -8.2) (layer B.Fab) (width 0.15))\u000a    (fp_line (start -2 -7.7) (end -1.5 -8.2) (layer B.Fab) (width 0.15))\u000a    (fp_line (start -1.5 -3.7) (end 1 -3.7) (layer B.Fab) (width 0.15))\u000a    (fp_line (start -2 -4.2) (end -1.5 -3.7) (layer B.Fab) (width 0.15))\u000a    (fp_line (start 7 -6.2) (end 2.5 -6.2) (layer B.Fab) (width 0.15))\u000a    (fp_line (start 2 -6.7) (end 2 -7.7) (layer B.Fab) (width 0.15))\u000a    (fp_line (start 1.5 -8.2) (end 2 -7.7) (layer B.Fab) (width 0.15))\u000a    (fp_line (start 2.5 -1.5) (end 7 -1.5) (layer B.Fab) (width 0.15))\u000a    (fp_line (start 2.5 -2.2) (end 2.5 -1.5) (layer B.Fab) (width 0.15))\u000a    (fp_line (start -2 -4.25) (end -2 -7.7) (layer B.Fab) (width 0.12))\u000a    (fp_line (start 9.5 -5) (end 9.5 -2.5) (layer B.Fab) (width 0.12))\u000a    (fp_line (start -4.5 -7.25) (end -2 -7.25) (layer B.Fab) (width 0.12))\u000a    (fp_line (start -4.5 -4.75) (end -4.5 -7.25) (layer B.Fab) (width 0.12))\u000a    (fp_line (start -2 -4.75) (end -4.5 -4.75) (layer B.Fab) (width 0.12))\u000a    (fp_line (start 9.5 -2.5) (end 7 -2.5) (layer B.Fab) (width 0.12))\u000a    (fp_line (start -2.5 -2.2) (end -2.5 -1.5) (layer F.SilkS) (width 0.15))\u000a    (fp_line (start -2.5 -1.5) (end -7 -1.5) (layer F.SilkS) (width 0.15))\u000a    (fp_line (start -1.5 -8.2) (end -2 -7.7) (layer F.SilkS) (width 0.15))\u000a    (fp_line (start -2 -6.7) (end -2 -7.7) (layer F.SilkS) (width 0.15))\u000a    (fp_line (start -7 -6.2) (end -2.5 -6.2) (layer F.SilkS) (width 0.15))\u000a    (fp_line (start 2 -4.2) (end 1.5 -3.7) (layer F.SilkS) (width 0.15))\u000a    (fp_line (start -7 -5.6) (end -7 -6.2) (layer F.SilkS) (width 0.15))\u000a    (fp_line (start 1.5 -3.7) (end -1 -3.7) (layer F.SilkS) (width 0.15))\u000a    (fp_line (start 2 -7.7) (end 1.5 -8.2) (layer F.SilkS) (width 0.15))\u000a    (fp_line (start 1.5 -8.2) (end -1.5 -8.2) (layer F.SilkS) (width 0.15))\u000a    (fp_line (start -7 -1.5) (end -7 -2) (layer F.SilkS) (width 0.15))\u000a    (fp_line (start 2.5 -2.2) (end 2.5 -1.5) (layer B.SilkS) (width 0.15))\u000a    (fp_line (start 2.5 -1.5) (end 7 -1.5) (layer B.SilkS) (width 0.15))\u000a    (fp_line (start 1.5 -8.2) (end 2 -7.7) (layer B.SilkS) (width 0.15))\u000a    (fp_line (start 2 -6.7) (end 2 -7.7) (layer B.SilkS) (width 0.15))\u000a    (fp_line (start 7 -6.2) (end 2.5 -6.2) (layer B.SilkS) (width 0.15))\u000a    (fp_line (start -2 -4.2) (end -1.5 -3.7) (layer B.SilkS) (width 0.15))\u000a    (fp_line (start 7 -5.6) (end 7 -6.2) (layer B.SilkS) (width 0.15))\u000a    (fp_line (start -1.5 -3.7) (end 1 -3.7) (layer B.SilkS) (width 0.15))\u000a    (fp_line (start -2 -7.7) (end -1.5 -8.2) (layer B.SilkS) (width 0.15))\u000a    (fp_line (start -1.5 -8.2) (end 1.5 -8.2) (layer B.SilkS) (width 0.15))\u000a    (fp_line (start 7 -1.5) (end 7 -2) (layer B.SilkS) (width 0.15))\u000a    (fp_line (start -7 -7) (end -6 -7) (layer B.SilkS) (width 0.15))\u000a    (fp_line (start -7 -6) (end -7 -7) (layer B.SilkS) (width 0.15))\u000a    (fp_line (start 7 -7) (end 7 -6) (layer B.SilkS) (width 0.15))\u000a    (fp_line (start 6 -7) (end 7 -7) (layer B.SilkS) (width 0.15))\u000a    (fp_line (start 7 6) (end 7 7) (layer B.SilkS) (width 0.15))\u000a    (fp_line (start 7 7) (end 6 7) (layer B.SilkS) (width 0.15))\u000a    (fp_line (start -7 7) (end -7 6) (layer B.SilkS) (width 0.15))\u000a    (fp_line (start -6 7) (end -7 7) (layer B.SilkS) (width 0.15))\u000a    (fp_line (start -7.5 7.5) (end -7.5 -7.5) (layer B.Fab) (width 0.15))\u000a    (fp_line (start 7.5 7.5) (end -7.5 7.5) (layer B.Fab) (width 0.15))\u000a    (fp_line (start 7.5 -7.5) (end 7.5 7.5) (layer B.Fab) (width 0.15))\u000a    (fp_line (start -7.5 -7.5) (end 7.5 -7.5) (layer B.Fab) (width 0.15))\u000a    (fp_line (start -6.9 6.9) (end -6.9 -6.9) (layer Eco2.User) (width 0.15))\u000a    (fp_line (start 6.9 -6.9) (end 6.9 6.9) (layer Eco2.User) (width 0.15))\u000a    (fp_line (start 6.9 -6.9) (end -6.9 -6.9) (layer Eco2.User) (width 0.15))\u000a    (fp_line (start -6.9 6.9) (end 6.9 6.9) (layer Eco2.User) (width 0.15))\u000a    (fp_line (start 7 -7) (end 7 -6) (layer F.SilkS) (width 0.15))\u000a    (fp_line (start 6 -7) (end 7 -7) (layer F.SilkS) (width 0.15))\u000a    (fp_line (start 7 7) (end 6 7) (layer F.SilkS) (width 0.15))\u000a    (fp_line (start 7 6) (end 7 7) (layer F.SilkS) (width 0.15))\u000a    (fp_line (start -7 7) (end -7 6) (layer F.SilkS) (width 0.15))\u000a    (fp_line (start -6 7) (end -7 7) (layer F.SilkS) (width 0.15))\u000a    (fp_line (start -7 -7) (end -6 -7) (layer F.SilkS) (width 0.15))\u000a    (fp_line (start -7 -6) (end -7 -7) (layer F.SilkS) (width 0.15))\u000a    (fp_line (start -2.6 -3.1) (end -2.6 -6.3) (layer Eco2.User) (width 0.15))\u000a    (fp_line (start 2.6 -6.3) (end -2.6 -6.3) (layer Eco2.User) (width 0.15))\u000a    (fp_line (start 2.6 -3.1) (end 2.6 -6.3) (layer Eco2.User) (width 0.15))\u000a    (fp_line (start -2.6 -3.1) (end 2.6 -3.1) (layer Eco2.User) (width 0.15))\u000a    (fp_arc (start 2.5 -6.7) (end 2 -6.7) (angle -90) (layer B.SilkS) (width 0.15))\u000a    (fp_arc (start 1 -2.2) (end 2.5 -2.2) (angle -90) (layer B.SilkS) (width 0.15))\u000a    (fp_arc (start -2.5 -6.7) (end -2 -6.7) (angle 90) (layer F.SilkS) (width 0.15))\u000a    (fp_arc (start -1 -2.2) (end -2.5 -2.2) (angle 90) (layer F.SilkS) (width 0.15))\u000a    (fp_arc (start 1 -2.2) (end 2.5 -2.2) (angle -90) (layer B.Fab) (width 0.15))\u000a    (fp_arc (start 2.5 -6.7) (end 2 -6.7) (angle -90) (layer B.Fab) (width 0.15))\u000a    (fp_text user %R (at 3 -5 180) (layer B.Fab)\u000a      (effects (font (size 1 1) (thickness 0.15)) (justify mirror))\u000a    )\u000a    (fp_arc (start -1 -2.2) (end -2.5 -2.2) (angle 90) (layer F.Fab) (width 0.15))\u000a    (fp_arc (start -2.5 -6.7) (end -2 -6.7) (angle 90) (layer F.Fab) (width 0.15))\u000a    (fp_text user %R (at -2.25 -4.75) (layer F.Fab)\u000a      (effects (font (size 1 1) (thickness 0.15)))\u000a    )\u000a    (fp_text user %R (at 0 -8.89) (layer B.SilkS)\u000a      (effects (font (size 1 1) (thickness 0.15)) (justify mirror))\u000a    )\u000a    (fp_text user %V (at 0 8.255) (layer B.Fab)\u000a      (effects (font (size 1 1) (thickness 0.15)) (justify mirror))\u000a    )\u000a    (pad 2 thru_hole circle (at -5 3.8) (size 2.032 2.032) (drill 1.27) (layers *.Cu *.Mask)\u000a      (net 16 COL-A))\u000a    (pad 2 smd rect (at 8.275 -3.75) (size 2.6 2.6) (layers B.Cu B.Paste B.Mask)\u000a      (net 16 COL-A))\u000a    (pad 1 smd rect (at -3.275 -5.95) (size 2.6 2.6) (layers B.Cu B.Paste B.Mask)\u000a      (net 1 "Net-(D1-Pad2)"))\u000a    (pad "" np_thru_hole circle (at 5 -3.75) (size 3 3) (drill 3) (layers *.Cu *.Mask))\u000a    (pad 2 smd rect (at -8.275 -3.75) (size 2.6 2.6) (layers F.Cu F.Paste F.Mask)\u000a      (net 16 COL-A))\u000a    (pad "" np_thru_hole circle (at 0 -5.95) (size 3 3) (drill 3) (layers *.Cu *.Mask))\u000a    (pad 1 thru_hole circle (at 0 5.9) (size 2.032 2.032) (drill 1.27) (layers *.Cu *.Mask)\u000a      (net 1 "Net-(D1-Pad2)"))\u000a    (pad 2 thru_hole circle (at 5 3.8) (size 2.032 2.032) (drill 1.27) (layers *.Cu *.Mask)\u000a      (net 16 COL-A))\u000a    (pad "" np_thru_hole circle (at 0 0) (size 3.429 3.429) (drill 3.429) (layers *.Cu *.Mask))\u000a    (pad "" np_thru_hole circle (at -5 -3.75) (size 3 3) (drill 3) (layers *.Cu *.Mask))\u000a    (pad 1 smd rect (at 3.275 -5.95) (size 2.6 2.6) (layers F.Cu F.Paste F.Mask)\u000a      (net 1 "Net-(D1-Pad2)"))\u000a    (pad "" np_thru_hole circle (at 5.5 0) (size 1.7018 1.7018) (drill 1.7018) (layers *.Cu *.Mask))\u000a    (pad "" np_thru_hole circle (at -5.5 0) (size 1.7018 1.7018) (drill 1.7018) (layers *.Cu *.Mask))\u000a    (model /Users/wingtangwong/Documents/KICAD/LIBRARY/3D-MODELS/KAILH-KEY-SWITCH/PG1350-socket.STEP\u000a      (offset (xyz 10 6 -1.6))\u000a      (scale (xyz 1 1 1))\u000a      (rotate (xyz -90 0 0))\u000a    )\u000a    (model "/Users/wingtangwong/Documents/KICAD/LIBRARY/3D-MODELS/KAILH-KEY-SWITCH/kailh-low-profile-mechanical-keyboard-switch-1.snapshot.1/Kailh LP Choc Burnt Orange.STEP"\u000a      (offset (xyz 0 0 3))\u000a      (scale (xyz 1 1 1))\u000a      (rotate (xyz -90 0 -90))\u000a    )\u000a    (model "/Users/wingtangwong/Documents/KICAD/LIBRARY/3D-MODELS/KAILH-KEY-SWITCH/kailh-lp-choc-pc-keycap-1.snapshot.3/Kailh LP Choc PC Keycap.step"\u000a      (offset (xyz 0 0 3))\u000a      (scale (xyz 1 1 1))\u000a      (rotate (xyz 0 0 0))\u000a    )\u000a  )\u000a\u000a  (module Connector_PinHeader_2.54mm:PinHeader_1x04_P2.54mm_Vertical (layer F.Cu) (tedit 59FED5CC) (tstamp 61479EA5)\u000a    (at -3 22)\u000a    (descr "Through hole straight pin header, 1x04, 2.54mm pitch, single row")\u000a    (tags "Through hole pin header THT 1x04 2.54mm single row")\u000a    (path /6147F031/6149403B)\u000a    (fp_text reference J12 (at 0 -2.33) (layer F.SilkS)\u000a      (effects (font (size 1 1) (thickness 0.15)))\u000a    )\u000a    (fp_text value Conn_01x04 (at 0 9.95) (layer F.Fab)\u000a      (effects (font (size 1 1) (thickness 0.15)))\u000a    )\u000a    (fp_line (start 1.8 -1.8) (end -1.8 -1.8) (layer F.CrtYd) (width 0.05))\u000a    (fp_line (start 1.8 9.4) (end 1.8 -1.8) (layer F.CrtYd) (width 0.05))\u000a    (fp_line (start -1.8 9.4) (end 1.8 9.4) (layer F.CrtYd) (width 0.05))\u000a    (fp_line (start -1.8 -1.8) (end -1.8 9.4) (layer F.CrtYd) (width 0.05))\u000a    (fp_line (start -1.33 -1.33) (end 0 -1.33) (layer F.SilkS) (width 0.12))\u000a    (fp_line (start -1.33 0) (end -1.33 -1.33) (layer F.SilkS) (width 0.12))\u000a    (fp_line (start -1.33 1.27) (end 1.33 1.27) (layer F.SilkS) (width 0.12))\u000a    (fp_line (start 1.33 1.27) (end 1.33 8.95) (layer F.SilkS) (width 0.12))\u000a    (fp_line (start -1.33 1.27) (end -1.33 8.95) (layer F.SilkS) (width 0.12))\u000a    (fp_line (start -1.33 8.95) (end 1.33 8.95) (layer F.SilkS) (width 0.12))\u000a    (fp_line (start -1.27 -0.635) (end -0.635 -1.27) (layer F.Fab) (width 0.1))\u000a    (fp_line (start -1.27 8.89) (end -1.27 -0.635) (layer F.Fab) (width 0.1))\u000a    (fp_line (start 1.27 8.89) (end -1.27 8.89) (layer F.Fab) (width 0.1))\u000a    (fp_line (start 1.27 -1.27) (end 1.27 8.89) (layer F.Fab) (width 0.1))\u000a    (fp_line (start -0.635 -1.27) (end 1.27 -1.27) (layer F.Fab) (width 0.1))\u000a    (fp_text user %R (at 0 3.81 90) (layer F.Fab)\u000a      (effects (font (size 1 1) (thickness 0.15)))\u000a    )\u000a    (pad 4 thru_hole oval (at 0 7.62) (size 1.7 1.7) (drill 1) (layers *.Cu *.Mask)\u000a      (net 16 COL-A))\u000a    (pad 3 thru_hole oval (at 0 5.08) (size 1.7 1.7) (drill 1) (layers *.Cu *.Mask)\u000a      (net 17 COL-B))\u000a    (pad 2 thru_hole oval (at 0 2.54) (size 1.7 1.7) (drill 1) (layers *.Cu *.Mask)\u000a      (net 18 COL-C))\u000a    (pad 1 thru_hole rect (at 0 0) (size 1.7 1.7) (drill 1) (layers *.Cu *.Mask)\u000a      (net 19 COL-D))\u000a    (model ${KISYS3DMOD}/Connector_PinHeader_2.54mm.3dshapes/PinHeader_1x04_P2.54mm_Vertical.wrl\u000a      (at (xyz 0 0 0))\u000a      (scale (xyz 1 1 1))\u000a      (rotate (xyz 0 0 0))\u000a    )\u000a  )\u000a\u000a  (module Connector_PinHeader_2.54mm:PinHeader_1x04_P2.54mm_Vertical (layer F.Cu) (tedit 59FED5CC) (tstamp 61479E8D)\u000a    (at -48 22)\u000a    (descr "Through hole straight pin header, 1x04, 2.54mm pitch, single row")\u000a    (tags "Through hole pin header THT 1x04 2.54mm single row")\u000a    (path /6147F031/61494031)\u000a    (fp_text reference J11 (at 0 -2.33) (layer F.SilkS)\u000a      (effects (font (size 1 1) (thickness 0.15)))\u000a    )\u000a    (fp_text value Conn_01x04 (at 0 9.95) (layer F.Fab)\u000a      (effects (font (size 1 1) (thickness 0.15)))\u000a    )\u000a    (fp_line (start 1.8 -1.8) (end -1.8 -1.8) (layer F.CrtYd) (width 0.05))\u000a    (fp_line (start 1.8 9.4) (end 1.8 -1.8) (layer F.CrtYd) (width 0.05))\u000a    (fp_line (start -1.8 9.4) (end 1.8 9.4) (layer F.CrtYd) (width 0.05))\u000a    (fp_line (start -1.8 -1.8) (end -1.8 9.4) (layer F.CrtYd) (width 0.05))\u000a    (fp_line (start -1.33 -1.33) (end 0 -1.33) (layer F.SilkS) (width 0.12))\u000a    (fp_line (start -1.33 0) (end -1.33 -1.33) (layer F.SilkS) (width 0.12))\u000a    (fp_line (start -1.33 1.27) (end 1.33 1.27) (layer F.SilkS) (width 0.12))\u000a    (fp_line (start 1.33 1.27) (end 1.33 8.95) (layer F.SilkS) (width 0.12))\u000a    (fp_line (start -1.33 1.27) (end -1.33 8.95) (layer F.SilkS) (width 0.12))\u000a    (fp_line (start -1.33 8.95) (end 1.33 8.95) (layer F.SilkS) (width 0.12))\u000a    (fp_line (start -1.27 -0.635) (end -0.635 -1.27) (layer F.Fab) (width 0.1))\u000a    (fp_line (start -1.27 8.89) (end -1.27 -0.635) (layer F.Fab) (width 0.1))\u000a    (fp_line (start 1.27 8.89) (end -1.27 8.89) (layer F.Fab) (width 0.1))\u000a    (fp_line (start 1.27 -1.27) (end 1.27 8.89) (layer F.Fab) (width 0.1))\u000a    (fp_line (start -0.635 -1.27) (end 1.27 -1.27) (layer F.Fab) (width 0.1))\u000a    (fp_text user %R (at 0 3.81 90) (layer F.Fab)\u000a      (effects (font (size 1 1) (thickness 0.15)))\u000a    )\u000a    (pad 4 thru_hole oval (at 0 7.62) (size 1.7 1.7) (drill 1) (layers *.Cu *.Mask)\u000a      (net 16 COL-A))\u000a    (pad 3 thru_hole oval (at 0 5.08) (size 1.7 1.7) (drill 1) (layers *.Cu *.Mask)\u000a      (net 17 COL-B))\u000a    (pad 2 thru_hole oval (at 0 2.54) (size 1.7 1.7) (drill 1) (layers *.Cu *.Mask)\u000a      (net 18 COL-C))\u000a    (pad 1 thru_hole rect (at 0 0) (size 1.7 1.7) (drill 1) (layers *.Cu *.Mask)\u000a      (net 19 COL-D))\u000a    (model ${KISYS3DMOD}/Connector_PinHeader_2.54mm.3dshapes/PinHeader_1x04_P2.54mm_Vertical.wrl\u000a      (at (xyz 0 0 0))\u000a      (scale (xyz 1 1 1))\u000a      (rotate (xyz 0 0 0))\u000a    )\u000a  )\u000a\u000a  (module Connector_PinHeader_2.54mm:PinHeader_1x05_P2.54mm_Vertical (layer F.Cu) (tedit 59FED5CC) (tstamp 61485F3D)\u000a    (at -48 -27.94 180)\u000a    (descr "Through hole straight pin header, 1x05, 2.54mm pitch, single row")\u000a    (tags "Through hole pin header THT 1x05 2.54mm single row")\u000a    (path /6147F031/61494026)\u000a    (fp_text reference J10 (at 0 -2.33) (layer F.SilkS)\u000a      (effects (font (size 1 1) (thickness 0.15)))\u000a    )\u000a    (fp_text value Conn_01x05 (at 0 12.49) (layer F.Fab)\u000a      (effects (font (size 1 1) (thickness 0.15)))\u000a    )\u000a    (fp_line (start 1.8 -1.8) (end -1.8 -1.8) (layer F.CrtYd) (width 0.05))\u000a    (fp_line (start 1.8 11.95) (end 1.8 -1.8) (layer F.CrtYd) (width 0.05))\u000a    (fp_line (start -1.8 11.95) (end 1.8 11.95) (layer F.CrtYd) (width 0.05))\u000a    (fp_line (start -1.8 -1.8) (end -1.8 11.95) (layer F.CrtYd) (width 0.05))\u000a    (fp_line (start -1.33 -1.33) (end 0 -1.33) (layer F.SilkS) (width 0.12))\u000a    (fp_line (start -1.33 0) (end -1.33 -1.33) (layer F.SilkS) (width 0.12))\u000a    (fp_line (start -1.33 1.27) (end 1.33 1.27) (layer F.SilkS) (width 0.12))\u000a    (fp_line (start 1.33 1.27) (end 1.33 11.49) (layer F.SilkS) (width 0.12))\u000a    (fp_line (start -1.33 1.27) (end -1.33 11.49) (layer F.SilkS) (width 0.12))\u000a    (fp_line (start -1.33 11.49) (end 1.33 11.49) (layer F.SilkS) (width 0.12))\u000a    (fp_line (start -1.27 -0.635) (end -0.635 -1.27) (layer F.Fab) (width 0.1))\u000a    (fp_line (start -1.27 11.43) (end -1.27 -0.635) (layer F.Fab) (width 0.1))\u000a    (fp_line (start 1.27 11.43) (end -1.27 11.43) (layer F.Fab) (width 0.1))\u000a    (fp_line (start 1.27 -1.27) (end 1.27 11.43) (layer F.Fab) (width 0.1))\u000a    (fp_line (start -0.635 -1.27) (end 1.27 -1.27) (layer F.Fab) (width 0.1))\u000a    (fp_text user %R (at 0 5.08 90) (layer F.Fab)\u000a      (effects (font (size 1 1) (thickness 0.15)))\u000a    )\u000a    (pad 5 thru_hole oval (at 0 10.16 180) (size 1.7 1.7) (drill 1) (layers *.Cu *.Mask)\u000a      (net 11 ROW-A))\u000a    (pad 4 thru_hole oval (at 0 7.62 180) (size 1.7 1.7) (drill 1) (layers *.Cu *.Mask)\u000a      (net 12 ROW-B))\u000a    (pad 3 thru_hole oval (at 0 5.08 180) (size 1.7 1.7) (drill 1) (layers *.Cu *.Mask)\u000a      (net 13 ROW-C))\u000a    (pad 2 thru_hole oval (at 0 2.54 180) (size 1.7 1.7) (drill 1) (layers *.Cu *.Mask)\u000a      (net 14 ROW-D))\u000a    (pad 1 thru_hole rect (at 0 0 180) (size 1.7 1.7) (drill 1) (layers *.Cu *.Mask)\u000a      (net 15 ROW-E))\u000a    (model ${KISYS3DMOD}/Connector_PinHeader_2.54mm.3dshapes/PinHeader_1x05_P2.54mm_Vertical.wrl\u000a      (at (xyz 0 0 0))\u000a      (scale (xyz 1 1 1))\u000a      (rotate (xyz 0 0 0))\u000a    )\u000a  )\u000a\u000a  (module Connector_PinHeader_2.54mm:PinHeader_1x05_P2.54mm_Vertical (layer F.Cu) (tedit 59FED5CC) (tstamp 61479E5C)\u000a    (at -3 -27.94 180)\u000a    (descr "Through hole straight pin header, 1x05, 2.54mm pitch, single row")\u000a    (tags "Through hole pin header THT 1x05 2.54mm single row")\u000a    (path /6147F031/6149401B)\u000a    (fp_text reference J9 (at 0 -2.33) (layer F.SilkS)\u000a      (effects (font (size 1 1) (thickness 0.15)))\u000a    )\u000a    (fp_text value Conn_01x05 (at 0 12.49) (layer F.Fab)\u000a      (effects (font (size 1 1) (thickness 0.15)))\u000a    )\u000a    (fp_line (start 1.8 -1.8) (end -1.8 -1.8) (layer F.CrtYd) (width 0.05))\u000a    (fp_line (start 1.8 11.95) (end 1.8 -1.8) (layer F.CrtYd) (width 0.05))\u000a    (fp_line (start -1.8 11.95) (end 1.8 11.95) (layer F.CrtYd) (width 0.05))\u000a    (fp_line (start -1.8 -1.8) (end -1.8 11.95) (layer F.CrtYd) (width 0.05))\u000a    (fp_line (start -1.33 -1.33) (end 0 -1.33) (layer F.SilkS) (width 0.12))\u000a    (fp_line (start -1.33 0) (end -1.33 -1.33) (layer F.SilkS) (width 0.12))\u000a    (fp_line (start -1.33 1.27) (end 1.33 1.27) (layer F.SilkS) (width 0.12))\u000a    (fp_line (start 1.33 1.27) (end 1.33 11.49) (layer F.SilkS) (width 0.12))\u000a    (fp_line (start -1.33 1.27) (end -1.33 11.49) (layer F.SilkS) (width 0.12))\u000a    (fp_line (start -1.33 11.49) (end 1.33 11.49) (layer F.SilkS) (width 0.12))\u000a    (fp_line (start -1.27 -0.635) (end -0.635 -1.27) (layer F.Fab) (width 0.1))\u000a    (fp_line (start -1.27 11.43) (end -1.27 -0.635) (layer F.Fab) (width 0.1))\u000a    (fp_line (start 1.27 11.43) (end -1.27 11.43) (layer F.Fab) (width 0.1))\u000a    (fp_line (start 1.27 -1.27) (end 1.27 11.43) (layer F.Fab) (width 0.1))\u000a    (fp_line (start -0.635 -1.27) (end 1.27 -1.27) (layer F.Fab) (width 0.1))\u000a    (fp_text user %R (at 0 5.08 90) (layer F.Fab)\u000a      (effects (font (size 1 1) (thickness 0.15)))\u000a    )\u000a    (pad 5 thru_hole oval (at 0 10.16 180) (size 1.7 1.7) (drill 1) (layers *.Cu *.Mask)\u000a      (net 11 ROW-A))\u000a    (pad 4 thru_hole oval (at 0 7.62 180) (size 1.7 1.7) (drill 1) (layers *.Cu *.Mask)\u000a      (net 12 ROW-B))\u000a    (pad 3 thru_hole oval (at 0 5.08 180) (size 1.7 1.7) (drill 1) (layers *.Cu *.Mask)\u000a      (net 13 ROW-C))\u000a    (pad 2 thru_hole oval (at 0 2.54 180) (size 1.7 1.7) (drill 1) (layers *.Cu *.Mask)\u000a      (net 14 ROW-D))\u000a    (pad 1 thru_hole rect (at 0 0 180) (size 1.7 1.7) (drill 1) (layers *.Cu *.Mask)\u000a      (net 15 ROW-E))\u000a    (model ${KISYS3DMOD}/Connector_PinHeader_2.54mm.3dshapes/PinHeader_1x05_P2.54mm_Vertical.wrl\u000a      (at (xyz 0 0 0))\u000a      (scale (xyz 1 1 1))\u000a      (rotate (xyz 0 0 0))\u000a    )\u000a  )\u000a\u000a  (module Diode_SMD:D_0805_2012Metric_Pad1.15x1.40mm_HandSolder (layer F.Cu) (tedit 5F68FEF0) (tstamp 61479E43)\u000a    (at -24 -8.4 270)\u000a    (descr "Diode SMD 0805 (2012 Metric), square (rectangular) end terminal, IPC_7351 nominal, (Body size source: https://docs.google.com/spreadsheets/d/1BsfQQcO9C6DZCsRaXUlFlo91Tg2WpOkGARC1WS5S8t0/edit?usp=sharing), generated with kicad-footprint-generator")\u000a    (tags "diode handsolder")\u000a    (path /6147F031/61485203)\u000a    (attr smd)\u000a    (fp_text reference D10 (at 0 -1.65 90) (layer F.SilkS)\u000a      (effects (font (size 1 1) (thickness 0.15)))\u000a    )\u000a    (fp_text value D (at 0 1.65 90) (layer F.Fab)\u000a      (effects (font (size 1 1) (thickness 0.15)))\u000a    )\u000a    (fp_line (start 1.85 0.95) (end -1.85 0.95) (layer F.CrtYd) (width 0.05))\u000a    (fp_line (start 1.85 -0.95) (end 1.85 0.95) (layer F.CrtYd) (width 0.05))\u000a    (fp_line (start -1.85 -0.95) (end 1.85 -0.95) (layer F.CrtYd) (width 0.05))\u000a    (fp_line (start -1.85 0.95) (end -1.85 -0.95) (layer F.CrtYd) (width 0.05))\u000a    (fp_line (start -1.86 0.96) (end 1 0.96) (layer F.SilkS) (width 0.12))\u000a    (fp_line (start -1.86 -0.96) (end -1.86 0.96) (layer F.SilkS) (width 0.12))\u000a    (fp_line (start 1 -0.96) (end -1.86 -0.96) (layer F.SilkS) (width 0.12))\u000a    (fp_line (start 1 0.6) (end 1 -0.6) (layer F.Fab) (width 0.1))\u000a    (fp_line (start -1 0.6) (end 1 0.6) (layer F.Fab) (width 0.1))\u000a    (fp_line (start -1 -0.3) (end -1 0.6) (layer F.Fab) (width 0.1))\u000a    (fp_line (start -0.7 -0.6) (end -1 -0.3) (layer F.Fab) (width 0.1))\u000a    (fp_line (start 1 -0.6) (end -0.7 -0.6) (layer F.Fab) (width 0.1))\u000a    (fp_text user %R (at 0 0 90) (layer F.Fab)\u000a      (effects (font (size 0.5 0.5) (thickness 0.08)))\u000a    )\u000a    (pad 2 smd roundrect (at 1.025 0 270) (size 1.15 1.4) (layers F.Cu F.Paste F.Mask) (roundrect_rratio 0.217391)\u000a      (net 10 "Net-(D10-Pad2)"))\u000a    (pad 1 smd roundrect (at -1.025 0 270) (size 1.15 1.4) (layers F.Cu F.Paste F.Mask) (roundrect_rratio 0.217391)\u000a      (net 13 ROW-C))\u000a    (model ${KISYS3DMOD}/Diode_SMD.3dshapes/D_0805_2012Metric.wrl\u000a      (at (xyz 0 0 0))\u000a      (scale (xyz 1 1 1))\u000a      (rotate (xyz 0 0 0))\u000a    )\u000a  )\u000a\u000a  (module Diode_SMD:D_0805_2012Metric_Pad1.15x1.40mm_HandSolder (layer F.Cu) (tedit 5F68FEF0) (tstamp 61479E30)\u000a    (at -23.8 32.5 270)\u000a    (descr "Diode SMD 0805 (2012 Metric), square (rectangular) end terminal, IPC_7351 nominal, (Body size source: https://docs.google.com/spreadsheets/d/1BsfQQcO9C6DZCsRaXUlFlo91Tg2WpOkGARC1WS5S8t0/edit?usp=sharing), generated with kicad-footprint-generator")\u000a    (tags "diode handsolder")\u000a    (path /6147F031/6148520F)\u000a    (attr smd)\u000a    (fp_text reference D9 (at 0 -1.65 90) (layer F.SilkS)\u000a      (effects (font (size 1 1) (thickness 0.15)))\u000a    )\u000a    (fp_text value D (at 0 1.65 90) (layer F.Fab)\u000a      (effects (font (size 1 1) (thickness 0.15)))\u000a    )\u000a    (fp_line (start 1.85 0.95) (end -1.85 0.95) (layer F.CrtYd) (width 0.05))\u000a    (fp_line (start 1.85 -0.95) (end 1.85 0.95) (layer F.CrtYd) (width 0.05))\u000a    (fp_line (start -1.85 -0.95) (end 1.85 -0.95) (layer F.CrtYd) (width 0.05))\u000a    (fp_line (start -1.85 0.95) (end -1.85 -0.95) (layer F.CrtYd) (width 0.05))\u000a    (fp_line (start -1.86 0.96) (end 1 0.96) (layer F.SilkS) (width 0.12))\u000a    (fp_line (start -1.86 -0.96) (end -1.86 0.96) (layer F.SilkS) (width 0.12))\u000a    (fp_line (start 1 -0.96) (end -1.86 -0.96) (layer F.SilkS) (width 0.12))\u000a    (fp_line (start 1 0.6) (end 1 -0.6) (layer F.Fab) (width 0.1))\u000a    (fp_line (start -1 0.6) (end 1 0.6) (layer F.Fab) (width 0.1))\u000a    (fp_line (start -1 -0.3) (end -1 0.6) (layer F.Fab) (width 0.1))\u000a    (fp_line (start -0.7 -0.6) (end -1 -0.3) (layer F.Fab) (width 0.1))\u000a    (fp_line (start 1 -0.6) (end -0.7 -0.6) (layer F.Fab) (width 0.1))\u000a    (fp_text user %R (at 0 0 90) (layer F.Fab)\u000a      (effects (font (size 0.5 0.5) (thickness 0.08)))\u000a    )\u000a    (pad 2 smd roundrect (at 1.025 0 270) (size 1.15 1.4) (layers F.Cu F.Paste F.Mask) (roundrect_rratio 0.217391)\u000a      (net 9 "Net-(D9-Pad2)"))\u000a    (pad 1 smd roundrect (at -1.025 0 270) (size 1.15 1.4) (layers F.Cu F.Paste F.Mask) (roundrect_rratio 0.217391)\u000a      (net 15 ROW-E))\u000a    (model ${KISYS3DMOD}/Diode_SMD.3dshapes/D_0805_2012Metric.wrl\u000a      (at (xyz 0 0 0))\u000a      (scale (xyz 1 1 1))\u000a      (rotate (xyz 0 0 0))\u000a    )\u000a  )\u000a\u000a  (module Diode_SMD:D_0805_2012Metric_Pad1.15x1.40mm_HandSolder (layer F.Cu) (tedit 5F68FEF0) (tstamp 61479E1D)\u000a    (at -24.1 10.175 270)\u000a    (descr "Diode SMD 0805 (2012 Metric), square (rectangular) end terminal, IPC_7351 nominal, (Body size source: https://docs.google.com/spreadsheets/d/1BsfQQcO9C6DZCsRaXUlFlo91Tg2WpOkGARC1WS5S8t0/edit?usp=sharing), generated with kicad-footprint-generator")\u000a    (tags "diode handsolder")\u000a    (path /6147F031/61485209)\u000a    (attr smd)\u000a    (fp_text reference D8 (at 0 -1.65 90) (layer F.SilkS)\u000a      (effects (font (size 1 1) (thickness 0.15)))\u000a    )\u000a    (fp_text value D (at 0 1.65 90) (layer F.Fab)\u000a      (effects (font (size 1 1) (thickness 0.15)))\u000a    )\u000a    (fp_line (start 1.85 0.95) (end -1.85 0.95) (layer F.CrtYd) (width 0.05))\u000a    (fp_line (start 1.85 -0.95) (end 1.85 0.95) (layer F.CrtYd) (width 0.05))\u000a    (fp_line (start -1.85 -0.95) (end 1.85 -0.95) (layer F.CrtYd) (width 0.05))\u000a    (fp_line (start -1.85 0.95) (end -1.85 -0.95) (layer F.CrtYd) (width 0.05))\u000a    (fp_line (start -1.86 0.96) (end 1 0.96) (layer F.SilkS) (width 0.12))\u000a    (fp_line (start -1.86 -0.96) (end -1.86 0.96) (layer F.SilkS) (width 0.12))\u000a    (fp_line (start 1 -0.96) (end -1.86 -0.96) (layer F.SilkS) (width 0.12))\u000a    (fp_line (start 1 0.6) (end 1 -0.6) (layer F.Fab) (width 0.1))\u000a    (fp_line (start -1 0.6) (end 1 0.6) (layer F.Fab) (width 0.1))\u000a    (fp_line (start -1 -0.3) (end -1 0.6) (layer F.Fab) (width 0.1))\u000a    (fp_line (start -0.7 -0.6) (end -1 -0.3) (layer F.Fab) (width 0.1))\u000a    (fp_line (start 1 -0.6) (end -0.7 -0.6) (layer F.Fab) (width 0.1))\u000a    (fp_text user %R (at 0 0 90) (layer F.Fab)\u000a      (effects (font (size 0.5 0.5) (thickness 0.08)))\u000a    )\u000a    (pad 2 smd roundrect (at 1.025 0 270) (size 1.15 1.4) (layers F.Cu F.Paste F.Mask) (roundrect_rratio 0.217391)\u000a      (net 8 "Net-(D8-Pad2)"))\u000a    (pad 1 smd roundrect (at -1.025 0 270) (size 1.15 1.4) (layers F.Cu F.Paste F.Mask) (roundrect_rratio 0.217391)\u000a      (net 14 ROW-D))\u000a    (model ${KISYS3DMOD}/Diode_SMD.3dshapes/D_0805_2012Metric.wrl\u000a      (at (xyz 0 0 0))\u000a      (scale (xyz 1 1 1))\u000a      (rotate (xyz 0 0 0))\u000a    )\u000a  )\u000a\u000a  (module Diode_SMD:D_0805_2012Metric_Pad1.15x1.40mm_HandSolder (layer F.Cu) (tedit 5F68FEF0) (tstamp 61479E0A)\u000a    (at -24.2 -28.475 270)\u000a    (descr "Diode SMD 0805 (2012 Metric), square (rectangular) end terminal, IPC_7351 nominal, (Body size source: https://docs.google.com/spreadsheets/d/1BsfQQcO9C6DZCsRaXUlFlo91Tg2WpOkGARC1WS5S8t0/edit?usp=sharing), generated with kicad-footprint-generator")\u000a    (tags "diode handsolder")\u000a    (path /6147F031/614851FD)\u000a    (attr smd)\u000a    (fp_text reference D7 (at 0 -1.65 90) (layer F.SilkS)\u000a      (effects (font (size 1 1) (thickness 0.15)))\u000a    )\u000a    (fp_text value D (at 0 1.65 90) (layer F.Fab)\u000a      (effects (font (size 1 1) (thickness 0.15)))\u000a    )\u000a    (fp_line (start 1.85 0.95) (end -1.85 0.95) (layer F.CrtYd) (width 0.05))\u000a    (fp_line (start 1.85 -0.95) (end 1.85 0.95) (layer F.CrtYd) (width 0.05))\u000a    (fp_line (start -1.85 -0.95) (end 1.85 -0.95) (layer F.CrtYd) (width 0.05))\u000a    (fp_line (start -1.85 0.95) (end -1.85 -0.95) (layer F.CrtYd) (width 0.05))\u000a    (fp_line (start -1.86 0.96) (end 1 0.96) (layer F.SilkS) (width 0.12))\u000a    (fp_line (start -1.86 -0.96) (end -1.86 0.96) (layer F.SilkS) (width 0.12))\u000a    (fp_line (start 1 -0.96) (end -1.86 -0.96) (layer F.SilkS) (width 0.12))\u000a    (fp_line (start 1 0.6) (end 1 -0.6) (layer F.Fab) (width 0.1))\u000a    (fp_line (start -1 0.6) (end 1 0.6) (layer F.Fab) (width 0.1))\u000a    (fp_line (start -1 -0.3) (end -1 0.6) (layer F.Fab) (width 0.1))\u000a    (fp_line (start -0.7 -0.6) (end -1 -0.3) (layer F.Fab) (width 0.1))\u000a    (fp_line (start 1 -0.6) (end -0.7 -0.6) (layer F.Fab) (width 0.1))\u000a    (fp_text user %R (at 0 0 90) (layer F.Fab)\u000a      (effects (font (size 0.5 0.5) (thickness 0.08)))\u000a    )\u000a    (pad 2 smd roundrect (at 1.025 0 270) (size 1.15 1.4) (layers F.Cu F.Paste F.Mask) (roundrect_rratio 0.217391)\u000a      (net 7 "Net-(D7-Pad2)"))\u000a    (pad 1 smd roundrect (at -1.025 0 270) (size 1.15 1.4) (layers F.Cu F.Paste F.Mask) (roundrect_rratio 0.217391)\u000a      (net 12 ROW-B))\u000a    (model ${KISYS3DMOD}/Diode_SMD.3dshapes/D_0805_2012Metric.wrl\u000a      (at (xyz 0 0 0))\u000a      (scale (xyz 1 1 1))\u000a      (rotate (xyz 0 0 0))\u000a    )\u000a  )\u000a\u000a  (module Diode_SMD:D_0805_2012Metric_Pad1.15x1.40mm_HandSolder (layer F.Cu) (tedit 5F68FEF0) (tstamp 61479DF7)\u000a    (at -24.1 -33.8 90)\u000a    (descr "Diode SMD 0805 (2012 Metric), square (rectangular) end terminal, IPC_7351 nominal, (Body size source: https://docs.google.com/spreadsheets/d/1BsfQQcO9C6DZCsRaXUlFlo91Tg2WpOkGARC1WS5S8t0/edit?usp=sharing), generated with kicad-footprint-generator")\u000a    (tags "diode handsolder")\u000a    (path /6147F031/614851F7)\u000a    (attr smd)\u000a    (fp_text reference D6 (at 0 -1.65 90) (layer F.SilkS)\u000a      (effects (font (size 1 1) (thickness 0.15)))\u000a    )\u000a    (fp_text value D (at 0 1.65 90) (layer F.Fab)\u000a      (effects (font (size 1 1) (thickness 0.15)))\u000a    )\u000a    (fp_line (start 1.85 0.95) (end -1.85 0.95) (layer F.CrtYd) (width 0.05))\u000a    (fp_line (start 1.85 -0.95) (end 1.85 0.95) (layer F.CrtYd) (width 0.05))\u000a    (fp_line (start -1.85 -0.95) (end 1.85 -0.95) (layer F.CrtYd) (width 0.05))\u000a    (fp_line (start -1.85 0.95) (end -1.85 -0.95) (layer F.CrtYd) (width 0.05))\u000a    (fp_line (start -1.86 0.96) (end 1 0.96) (layer F.SilkS) (width 0.12))\u000a    (fp_line (start -1.86 -0.96) (end -1.86 0.96) (layer F.SilkS) (width 0.12))\u000a    (fp_line (start 1 -0.96) (end -1.86 -0.96) (layer F.SilkS) (width 0.12))\u000a    (fp_line (start 1 0.6) (end 1 -0.6) (layer F.Fab) (width 0.1))\u000a    (fp_line (start -1 0.6) (end 1 0.6) (layer F.Fab) (width 0.1))\u000a    (fp_line (start -1 -0.3) (end -1 0.6) (layer F.Fab) (width 0.1))\u000a    (fp_line (start -0.7 -0.6) (end -1 -0.3) (layer F.Fab) (width 0.1))\u000a    (fp_line (start 1 -0.6) (end -0.7 -0.6) (layer F.Fab) (width 0.1))\u000a    (fp_text user %R (at 0 0 90) (layer F.Fab)\u000a      (effects (font (size 0.5 0.5) (thickness 0.08)))\u000a    )\u000a    (pad 2 smd roundrect (at 1.025 0 90) (size 1.15 1.4) (layers F.Cu F.Paste F.Mask) (roundrect_rratio 0.217391)\u000a      (net 6 "Net-(D6-Pad2)"))\u000a    (pad 1 smd roundrect (at -1.025 0 90) (size 1.15 1.4) (layers F.Cu F.Paste F.Mask) (roundrect_rratio 0.217391)\u000a      (net 11 ROW-A))\u000a    (model ${KISYS3DMOD}/Diode_SMD.3dshapes/D_0805_2012Metric.wrl\u000a      (at (xyz 0 0 0))\u000a      (scale (xyz 1 1 1))\u000a      (rotate (xyz 0 0 0))\u000a    )\u000a  )\u000a\u000a  (module Diode_SMD:D_0805_2012Metric_Pad1.15x1.40mm_HandSolder (layer F.Cu) (tedit 5F68FEF0) (tstamp 61483B51)\u000a    (at -26.8 32.525 270)\u000a    (descr "Diode SMD 0805 (2012 Metric), square (rectangular) end terminal, IPC_7351 nominal, (Body size source: https://docs.google.com/spreadsheets/d/1BsfQQcO9C6DZCsRaXUlFlo91Tg2WpOkGARC1WS5S8t0/edit?usp=sharing), generated with kicad-footprint-generator")\u000a    (tags "diode handsolder")\u000a    (path /6147F031/614851F1)\u000a    (attr smd)\u000a    (fp_text reference D5 (at 0 -1.65 90) (layer F.SilkS)\u000a      (effects (font (size 1 1) (thickness 0.15)))\u000a    )\u000a    (fp_text value D (at 0 1.65 90) (layer F.Fab)\u000a      (effects (font (size 1 1) (thickness 0.15)))\u000a    )\u000a    (fp_line (start 1.85 0.95) (end -1.85 0.95) (layer F.CrtYd) (width 0.05))\u000a    (fp_line (start 1.85 -0.95) (end 1.85 0.95) (layer F.CrtYd) (width 0.05))\u000a    (fp_line (start -1.85 -0.95) (end 1.85 -0.95) (layer F.CrtYd) (width 0.05))\u000a    (fp_line (start -1.85 0.95) (end -1.85 -0.95) (layer F.CrtYd) (width 0.05))\u000a    (fp_line (start -1.86 0.96) (end 1 0.96) (layer F.SilkS) (width 0.12))\u000a    (fp_line (start -1.86 -0.96) (end -1.86 0.96) (layer F.SilkS) (width 0.12))\u000a    (fp_line (start 1 -0.96) (end -1.86 -0.96) (layer F.SilkS) (width 0.12))\u000a    (fp_line (start 1 0.6) (end 1 -0.6) (layer F.Fab) (width 0.1))\u000a    (fp_line (start -1 0.6) (end 1 0.6) (layer F.Fab) (width 0.1))\u000a    (fp_line (start -1 -0.3) (end -1 0.6) (layer F.Fab) (width 0.1))\u000a    (fp_line (start -0.7 -0.6) (end -1 -0.3) (layer F.Fab) (width 0.1))\u000a    (fp_line (start 1 -0.6) (end -0.7 -0.6) (layer F.Fab) (width 0.1))\u000a    (fp_text user %R (at 0 0 90) (layer F.Fab)\u000a      (effects (font (size 0.5 0.5) (thickness 0.08)))\u000a    )\u000a    (pad 2 smd roundrect (at 1.025 0 270) (size 1.15 1.4) (layers F.Cu F.Paste F.Mask) (roundrect_rratio 0.217391)\u000a      (net 5 "Net-(D5-Pad2)"))\u000a    (pad 1 smd roundrect (at -1.025 0 270) (size 1.15 1.4) (layers F.Cu F.Paste F.Mask) (roundrect_rratio 0.217391)\u000a      (net 15 ROW-E))\u000a    (model ${KISYS3DMOD}/Diode_SMD.3dshapes/D_0805_2012Metric.wrl\u000a      (at (xyz 0 0 0))\u000a      (scale (xyz 1 1 1))\u000a      (rotate (xyz 0 0 0))\u000a    )\u000a  )\u000a\u000a  (module Diode_SMD:D_0805_2012Metric_Pad1.15x1.40mm_HandSolder (layer F.Cu) (tedit 5F68FEF0) (tstamp 61479DD1)\u000a    (at -27.1 10.175 270)\u000a    (descr "Diode SMD 0805 (2012 Metric), square (rectangular) end terminal, IPC_7351 nominal, (Body size source: https://docs.google.com/spreadsheets/d/1BsfQQcO9C6DZCsRaXUlFlo91Tg2WpOkGARC1WS5S8t0/edit?usp=sharing), generated with kicad-footprint-generator")\u000a    (tags "diode handsolder")\u000a    (path /6147F031/614851EB)\u000a    (attr smd)\u000a    (fp_text reference D4 (at 0 -1.65 90) (layer F.SilkS)\u000a      (effects (font (size 1 1) (thickness 0.15)))\u000a    )\u000a    (fp_text value D (at 0 1.65 90) (layer F.Fab)\u000a      (effects (font (size 1 1) (thickness 0.15)))\u000a    )\u000a    (fp_line (start 1.85 0.95) (end -1.85 0.95) (layer F.CrtYd) (width 0.05))\u000a    (fp_line (start 1.85 -0.95) (end 1.85 0.95) (layer F.CrtYd) (width 0.05))\u000a    (fp_line (start -1.85 -0.95) (end 1.85 -0.95) (layer F.CrtYd) (width 0.05))\u000a    (fp_line (start -1.85 0.95) (end -1.85 -0.95) (layer F.CrtYd) (width 0.05))\u000a    (fp_line (start -1.86 0.96) (end 1 0.96) (layer F.SilkS) (width 0.12))\u000a    (fp_line (start -1.86 -0.96) (end -1.86 0.96) (layer F.SilkS) (width 0.12))\u000a    (fp_line (start 1 -0.96) (end -1.86 -0.96) (layer F.SilkS) (width 0.12))\u000a    (fp_line (start 1 0.6) (end 1 -0.6) (layer F.Fab) (width 0.1))\u000a    (fp_line (start -1 0.6) (end 1 0.6) (layer F.Fab) (width 0.1))\u000a    (fp_line (start -1 -0.3) (end -1 0.6) (layer F.Fab) (width 0.1))\u000a    (fp_line (start -0.7 -0.6) (end -1 -0.3) (layer F.Fab) (width 0.1))\u000a    (fp_line (start 1 -0.6) (end -0.7 -0.6) (layer F.Fab) (width 0.1))\u000a    (fp_text user %R (at 0 0 90) (layer F.Fab)\u000a      (effects (font (size 0.5 0.5) (thickness 0.08)))\u000a    )\u000a    (pad 2 smd roundrect (at 1.025 0 270) (size 1.15 1.4) (layers F.Cu F.Paste F.Mask) (roundrect_rratio 0.217391)\u000a      (net 4 "Net-(D4-Pad2)"))\u000a    (pad 1 smd roundrect (at -1.025 0 270) (size 1.15 1.4) (layers F.Cu F.Paste F.Mask) (roundrect_rratio 0.217391)\u000a      (net 14 ROW-D))\u000a    (model ${KISYS3DMOD}/Diode_SMD.3dshapes/D_0805_2012Metric.wrl\u000a      (at (xyz 0 0 0))\u000a      (scale (xyz 1 1 1))\u000a      (rotate (xyz 0 0 0))\u000a    )\u000a  )\u000a\u000a  (module Diode_SMD:D_0805_2012Metric_Pad1.15x1.40mm_HandSolder (layer F.Cu) (tedit 5F68FEF0) (tstamp 61479DBE)\u000a    (at -27 -8.425 270)\u000a    (descr "Diode SMD 0805 (2012 Metric), square (rectangular) end terminal, IPC_7351 nominal, (Body size source: https://docs.google.com/spreadsheets/d/1BsfQQcO9C6DZCsRaXUlFlo91Tg2WpOkGARC1WS5S8t0/edit?usp=sharing), generated with kicad-footprint-generator")\u000a    (tags "diode handsolder")\u000a    (path /6147F031/614851E5)\u000a    (attr smd)\u000a    (fp_text reference D3 (at 0 -1.65 90) (layer F.SilkS)\u000a      (effects (font (size 1 1) (thickness 0.15)))\u000a    )\u000a    (fp_text value D (at 0 1.65 90) (layer F.Fab)\u000a      (effects (font (size 1 1) (thickness 0.15)))\u000a    )\u000a    (fp_line (start 1.85 0.95) (end -1.85 0.95) (layer F.CrtYd) (width 0.05))\u000a    (fp_line (start 1.85 -0.95) (end 1.85 0.95) (layer F.CrtYd) (width 0.05))\u000a    (fp_line (start -1.85 -0.95) (end 1.85 -0.95) (layer F.CrtYd) (width 0.05))\u000a    (fp_line (start -1.85 0.95) (end -1.85 -0.95) (layer F.CrtYd) (width 0.05))\u000a    (fp_line (start -1.86 0.96) (end 1 0.96) (layer F.SilkS) (width 0.12))\u000a    (fp_line (start -1.86 -0.96) (end -1.86 0.96) (layer F.SilkS) (width 0.12))\u000a    (fp_line (start 1 -0.96) (end -1.86 -0.96) (layer F.SilkS) (width 0.12))\u000a    (fp_line (start 1 0.6) (end 1 -0.6) (layer F.Fab) (width 0.1))\u000a    (fp_line (start -1 0.6) (end 1 0.6) (layer F.Fab) (width 0.1))\u000a    (fp_line (start -1 -0.3) (end -1 0.6) (layer F.Fab) (width 0.1))\u000a    (fp_line (start -0.7 -0.6) (end -1 -0.3) (layer F.Fab) (width 0.1))\u000a    (fp_line (start 1 -0.6) (end -0.7 -0.6) (layer F.Fab) (width 0.1))\u000a    (fp_text user %R (at 0 0 90) (layer F.Fab)\u000a      (effects (font (size 0.5 0.5) (thickness 0.08)))\u000a    )\u000a    (pad 2 smd roundrect (at 1.025 0 270) (size 1.15 1.4) (layers F.Cu F.Paste F.Mask) (roundrect_rratio 0.217391)\u000a      (net 3 "Net-(D3-Pad2)"))\u000a    (pad 1 smd roundrect (at -1.025 0 270) (size 1.15 1.4) (layers F.Cu F.Paste F.Mask) (roundrect_rratio 0.217391)\u000a      (net 13 ROW-C))\u000a    (model ${KISYS3DMOD}/Diode_SMD.3dshapes/D_0805_2012Metric.wrl\u000a      (at (xyz 0 0 0))\u000a      (scale (xyz 1 1 1))\u000a      (rotate (xyz 0 0 0))\u000a    )\u000a  )\u000a\u000a  (module Diode_SMD:D_0805_2012Metric_Pad1.15x1.40mm_HandSolder (layer F.Cu) (tedit 5F68FEF0) (tstamp 61479DAB)\u000a    (at -27 -28.4 270)\u000a    (descr "Diode SMD 0805 (2012 Metric), square (rectangular) end terminal, IPC_7351 nominal, (Body size source: https://docs.google.com/spreadsheets/d/1BsfQQcO9C6DZCsRaXUlFlo91Tg2WpOkGARC1WS5S8t0/edit?usp=sharing), generated with kicad-footprint-generator")\u000a    (tags "diode handsolder")\u000a    (path /6147F031/614851DE)\u000a    (attr smd)\u000a    (fp_text reference D2 (at 0 -1.65 90) (layer F.SilkS)\u000a      (effects (font (size 1 1) (thickness 0.15)))\u000a    )\u000a    (fp_text value D (at 0 1.65 90) (layer F.Fab)\u000a      (effects (font (size 1 1) (thickness 0.15)))\u000a    )\u000a    (fp_line (start 1.85 0.95) (end -1.85 0.95) (layer F.CrtYd) (width 0.05))\u000a    (fp_line (start 1.85 -0.95) (end 1.85 0.95) (layer F.CrtYd) (width 0.05))\u000a    (fp_line (start -1.85 -0.95) (end 1.85 -0.95) (layer F.CrtYd) (width 0.05))\u000a    (fp_line (start -1.85 0.95) (end -1.85 -0.95) (layer F.CrtYd) (width 0.05))\u000a    (fp_line (start -1.86 0.96) (end 1 0.96) (layer F.SilkS) (width 0.12))\u000a    (fp_line (start -1.86 -0.96) (end -1.86 0.96) (layer F.SilkS) (width 0.12))\u000a    (fp_line (start 1 -0.96) (end -1.86 -0.96) (layer F.SilkS) (width 0.12))\u000a    (fp_line (start 1 0.6) (end 1 -0.6) (layer F.Fab) (width 0.1))\u000a    (fp_line (start -1 0.6) (end 1 0.6) (layer F.Fab) (width 0.1))\u000a    (fp_line (start -1 -0.3) (end -1 0.6) (layer F.Fab) (width 0.1))\u000a    (fp_line (start -0.7 -0.6) (end -1 -0.3) (layer F.Fab) (width 0.1))\u000a    (fp_line (start 1 -0.6) (end -0.7 -0.6) (layer F.Fab) (width 0.1))\u000a    (fp_text user %R (at 0 0 90) (layer F.Fab)\u000a      (effects (font (size 0.5 0.5) (thickness 0.08)))\u000a    )\u000a    (pad 2 smd roundrect (at 1.025 0 270) (size 1.15 1.4) (layers F.Cu F.Paste F.Mask) (roundrect_rratio 0.217391)\u000a      (net 2 "Net-(D2-Pad2)"))\u000a    (pad 1 smd roundrect (at -1.025 0 270) (size 1.15 1.4) (layers F.Cu F.Paste F.Mask) (roundrect_rratio 0.217391)\u000a      (net 12 ROW-B))\u000a    (model ${KISYS3DMOD}/Diode_SMD.3dshapes/D_0805_2012Metric.wrl\u000a      (at (xyz 0 0 0))\u000a      (scale (xyz 1 1 1))\u000a      (rotate (xyz 0 0 0))\u000a    )\u000a  )\u000a\u000a  (module Diode_SMD:D_0805_2012Metric_Pad1.15x1.40mm_HandSolder (layer F.Cu) (tedit 5F68FEF0) (tstamp 61479D98)\u000a    (at -26.9 -33.825 90)\u000a    (descr "Diode SMD 0805 (2012 Metric), square (rectangular) end terminal, IPC_7351 nominal, (Body size source: https://docs.google.com/spreadsheets/d/1BsfQQcO9C6DZCsRaXUlFlo91Tg2WpOkGARC1WS5S8t0/edit?usp=sharing), generated with kicad-footprint-generator")\u000a    (tags "diode handsolder")\u000a    (path /6147F031/614851D7)\u000a    (attr smd)\u000a    (fp_text reference D1 (at 0 -1.65 90) (layer F.SilkS)\u000a      (effects (font (size 1 1) (thickness 0.15)))\u000a    )\u000a    (fp_text value D (at 0 1.65 90) (layer F.Fab)\u000a      (effects (font (size 1 1) (thickness 0.15)))\u000a    )\u000a    (fp_line (start 1.85 0.95) (end -1.85 0.95) (layer F.CrtYd) (width 0.05))\u000a    (fp_line (start 1.85 -0.95) (end 1.85 0.95) (layer F.CrtYd) (width 0.05))\u000a    (fp_line (start -1.85 -0.95) (end 1.85 -0.95) (layer F.CrtYd) (width 0.05))\u000a    (fp_line (start -1.85 0.95) (end -1.85 -0.95) (layer F.CrtYd) (width 0.05))\u000a    (fp_line (start -1.86 0.96) (end 1 0.96) (layer F.SilkS) (width 0.12))\u000a    (fp_line (start -1.86 -0.96) (end -1.86 0.96) (layer F.SilkS) (width 0.12))\u000a    (fp_line (start 1 -0.96) (end -1.86 -0.96) (layer F.SilkS) (width 0.12))\u000a    (fp_line (start 1 0.6) (end 1 -0.6) (layer F.Fab) (width 0.1))\u000a    (fp_line (start -1 0.6) (end 1 0.6) (layer F.Fab) (width 0.1))\u000a    (fp_line (start -1 -0.3) (end -1 0.6) (layer F.Fab) (width 0.1))\u000a    (fp_line (start -0.7 -0.6) (end -1 -0.3) (layer F.Fab) (width 0.1))\u000a    (fp_line (start 1 -0.6) (end -0.7 -0.6) (layer F.Fab) (width 0.1))\u000a    (fp_text user %R (at 0 0 90) (layer F.Fab)\u000a      (effects (font (size 0.5 0.5) (thickness 0.08)))\u000a    )\u000a    (pad 2 smd roundrect (at 1.025 0 90) (size 1.15 1.4) (layers F.Cu F.Paste F.Mask) (roundrect_rratio 0.217391)\u000a      (net 1 "Net-(D1-Pad2)"))\u000a    (pad 1 smd roundrect (at -1.025 0 90) (size 1.15 1.4) (layers F.Cu F.Paste F.Mask) (roundrect_rratio 0.217391)\u000a      (net 11 ROW-A))\u000a    (model ${KISYS3DMOD}/Diode_SMD.3dshapes/D_0805_2012Metric.wrl\u000a      (at (xyz 0 0 0))\u000a      (scale (xyz 1 1 1))\u000a      (rotate (xyz 0 0 0))\u000a    )\u000a  )\u000a\u000a  (gr_arc (start -49 -8) (end -48 -8) (angle -90) (layer Edge.Cuts) (width 0.05) (tstamp 6147B1CF))\u000a  (gr_arc (start -49 -8) (end -49 -7) (angle -90) (layer Edge.Cuts) (width 0.05) (tstamp 6147B1C9))\u000a  (gr_arc (start -49 8) (end -49 9) (angle -90) (layer Edge.Cuts) (width 0.05) (tstamp 6147B1C2))\u000a  (gr_arc (start -49 8) (end -48 8) (angle -90) (layer Edge.Cuts) (width 0.05) (tstamp 6147B1BC))\u000a  (gr_arc (start -2 -8) (end -3 -8) (angle -90) (layer Edge.Cuts) (width 0.05) (tstamp 6147B1A2))\u000a  (gr_arc (start -2 8) (end -2 7) (angle -90) (layer Edge.Cuts) (width 0.05) (tstamp 6147B18E))\u000a  (gr_arc (start -2 -8) (end -2 -9) (angle -90) (layer Edge.Cuts) (width 0.05) (tstamp 6147B173))\u000a  (gr_arc (start -2 8) (end -3 8) (angle -90) (layer Edge.Cuts) (width 0.05))\u000a\u000a  (via (at -3 -7) (size 0.8) (drill 0.4) (layers F.Cu B.Cu) (net 0) (tstamp 61484798))\u000a  (via (at -3 -6) (size 0.8) (drill 0.4) (layers F.Cu B.Cu) (net 0) (tstamp 614847AA))\u000a  (via (at -3 -5) (size 0.8) (drill 0.4) (layers F.Cu B.Cu) (net 0) (tstamp 614847A1))\u000a  (via (at -3 -4) (size 0.8) (drill 0.4) (layers F.Cu B.Cu) (net 0) (tstamp 6148478C))\u000a  (via (at -3 -3) (size 0.8) (drill 0.4) (layers F.Cu B.Cu) (net 0) (tstamp 614847B3))\u000a  (via (at -3 -2) (size 0.8) (drill 0.4) (layers F.Cu B.Cu) (net 0) (tstamp 614847C5))\u000a  (via (at -3 -1) (size 0.8) (drill 0.4) (layers F.Cu B.Cu) (net 0) (tstamp 61484789))\u000a  (via (at -3 0) (size 0.8) (drill 0.4) (layers F.Cu B.Cu) (net 0) (tstamp 61484795))\u000a  (via (at -3 1) (size 0.8) (drill 0.4) (layers F.Cu B.Cu) (net 0) (tstamp 614847B9))\u000a  (via (at -3 2) (size 0.8) (drill 0.4) (layers F.Cu B.Cu) (net 0) (tstamp 614847BF))\u000a  (via (at -3 3) (size 0.8) (drill 0.4) (layers F.Cu B.Cu) (net 0) (tstamp 614847AD))\u000a  (via (at -3 4) (size 0.8) (drill 0.4) (layers F.Cu B.Cu) (net 0) (tstamp 614847B0))\u000a  (via (at -3 5) (size 0.8) (drill 0.4) (layers F.Cu B.Cu) (net 0) (tstamp 614847B6))\u000a  (via (at -3 6) (size 0.8) (drill 0.4) (layers F.Cu B.Cu) (net 0) (tstamp 614847D1))\u000a  (via (at -3 7) (size 0.8) (drill 0.4) (layers F.Cu B.Cu) (net 0) (tstamp 6148479B))\u000a  (via (at -2.5 6.5) (size 0.8) (drill 0.4) (layers F.Cu B.Cu) (net 0) (tstamp 614847BC))\u000a  (via (at -2.5 5.5) (size 0.8) (drill 0.4) (layers F.Cu B.Cu) (net 0) (tstamp 6148479E))\u000a  (via (at -2.5 4.5) (size 0.8) (drill 0.4) (layers F.Cu B.Cu) (net 0) (tstamp 61484786))\u000a  (via (at -2.5 3.5) (size 0.8) (drill 0.4) (layers F.Cu B.Cu) (net 0) (tstamp 614847CB))\u000a  (via (at -2.5 2.5) (size 0.8) (drill 0.4) (layers F.Cu B.Cu) (net 0) (tstamp 614847C8))\u000a  (via (at -2.5 1.5) (size 0.8) (drill 0.4) (layers F.Cu B.Cu) (net 0) (tstamp 61484783))\u000a  (via (at -2.5 0.5) (size 0.8) (drill 0.4) (layers F.Cu B.Cu) (net 0) (tstamp 61484792))\u000a  (via (at -2.5 -0.5) (size 0.8) (drill 0.4) (layers F.Cu B.Cu) (net 0) (tstamp 6148478F))\u000a  (via (at -2.5 -1.5) (size 0.8) (drill 0.4) (layers F.Cu B.Cu) (net 0) (tstamp 614847A4))\u000a  (via (at -2.5 -2.5) (size 0.8) (drill 0.4) (layers F.Cu B.Cu) (net 0) (tstamp 614847C2))\u000a  (via (at -2.5 -3.5) (size 0.8) (drill 0.4) (layers F.Cu B.Cu) (net 0) (tstamp 6148477D))\u000a  (via (at -2.5 -4.5) (size 0.8) (drill 0.4) (layers F.Cu B.Cu) (net 0) (tstamp 61484780))\u000a  (via (at -2.5 -5.5) (size 0.8) (drill 0.4) (layers F.Cu B.Cu) (net 0) (tstamp 614847CE))\u000a  (via (at -2.5 -6.5) (size 0.8) (drill 0.4) (layers F.Cu B.Cu) (net 0) (tstamp 614847A7))\u000a  (segment (start -38.914501 -44.839501) (end -38.914501 -36.264501) (width 0.5) (layer B.Cu) (net 1))\u000a  (segment (start -38.914501 -36.264501) (end -36.75 -34.1) (width 0.5) (layer B.Cu) (net 1))\u000a  (segment (start -40.025 -45.95) (end -38.914501 -44.839501) (width 0.5) (layer B.Cu) (net 1))\u000a  (segment (start -33.700001 -37.149999) (end -36.75 -34.1) (width 0.5) (layer F.Cu) (net 1))\u000a  (segment (start -33.700001 -45.724999) (end -33.700001 -37.149999) (width 0.5) (layer F.Cu) (net 1))\u000a  (segment (start -33.475 -45.95) (end -33.700001 -45.724999) (width 0.5) (layer F.Cu) (net 1))\u000a  (segment (start -26.9 -34.85) (end -26.9 -46.6) (width 0.5) (layer F.Cu) (net 1))\u000a  (segment (start -26.9 -46.6) (end -27.9 -47.6) (width 0.5) (layer F.Cu) (net 1))\u000a  (segment (start -31.825 -47.6) (end -33.475 -45.95) (width 0.5) (layer F.Cu) (net 1))\u000a  (segment (start -27.9 -47.6) (end -31.825 -47.6) (width 0.5) (layer F.Cu) (net 1))\u000a  (segment (start -34.585499 -16.264501) (end -36.75 -14.1) (width 0.5) (layer F.Cu) (net 2))\u000a  (segment (start -34.585499 -24.839501) (end -34.585499 -16.264501) (width 0.5) (layer F.Cu) (net 2))\u000a  (segment (start -33.475 -25.95) (end -34.585499 -24.839501) (width 0.5) (layer F.Cu) (net 2))\u000a  (segment (start -38.914501 -16.264501) (end -36.75 -14.1) (width 0.5) (layer B.Cu) (net 2))\u000a  (segment (start -38.914501 -24.839501) (end -38.914501 -16.264501) (width 0.5) (layer B.Cu) (net 2))\u000a  (segment (start -40.025 -25.95) (end -38.914501 -24.839501) (width 0.5) (layer B.Cu) (net 2))\u000a  (segment (start -33.475 -25.95) (end -33.475 -26.125) (width 0.5) (layer F.Cu) (net 2))\u000a  (segment (start -32.225 -27.375) (end -27 -27.375) (width 0.5) (layer F.Cu) (net 2))\u000a  (segment (start -33.475 -26.125) (end -32.225 -27.375) (width 0.5) (layer F.Cu) (net 2))\u000a  (segment (start -33.700001 2.850001) (end -36.75 5.9) (width 0.5) (layer F.Cu) (net 3))\u000a  (segment (start -33.700001 -5.724999) (end -33.700001 2.850001) (width 0.5) (layer F.Cu) (net 3))\u000a  (segment (start -33.475 -5.95) (end -33.700001 -5.724999) (width 0.5) (layer F.Cu) (net 3))\u000a  (segment (start -38.914501 -4.839501) (end -38.914501 3.735499) (width 0.5) (layer B.Cu) (net 3))\u000a  (segment (start -38.914501 3.735499) (end -36.75 5.9) (width 0.5) (layer B.Cu) (net 3))\u000a  (segment (start -40.025 -5.95) (end -38.914501 -4.839501) (width 0.5) (layer B.Cu) (net 3))\u000a  (segment (start -33.475 -5.95) (end -33.475 -6.325) (width 0.5) (layer F.Cu) (net 3))\u000a  (segment (start -32.4 -7.4) (end -27 -7.4) (width 0.5) (layer F.Cu) (net 3))\u000a  (segment (start -33.475 -6.325) (end -32.4 -7.4) (width 0.5) (layer F.Cu) (net 3))\u000a  (segment (start -33.700001 22.850001) (end -36.75 25.9) (width 0.5) (layer F.Cu) (net 4))\u000a  (segment (start -33.700001 14.275001) (end -33.700001 22.850001) (width 0.5) (layer F.Cu) (net 4))\u000a  (segment (start -33.475 14.05) (end -33.700001 14.275001) (width 0.5) (layer F.Cu) (net 4))\u000a  (segment (start -39.799999 22.850001) (end -36.75 25.9) (width 0.5) (layer B.Cu) (net 4))\u000a  (segment (start -39.799999 14.275001) (end -39.799999 22.850001) (width 0.5) (layer B.Cu) (net 4))\u000a  (segment (start -40.025 14.05) (end -39.799999 14.275001) (width 0.5) (layer B.Cu) (net 4))\u000a  (segment (start -33.475 14.05) (end -33.475 12.475) (width 0.5) (layer F.Cu) (net 4))\u000a  (segment (start -32.2 11.2) (end -27.1 11.2) (width 0.5) (layer F.Cu) (net 4))\u000a  (segment (start -33.475 12.475) (end -32.2 11.2) (width 0.5) (layer F.Cu) (net 4))\u000a  (segment (start -33.700001 42.850001) (end -36.75 45.9) (width 0.5) (layer F.Cu) (net 5))\u000a  (segment (start -33.700001 34.275001) (end -33.700001 42.850001) (width 0.5) (layer F.Cu) (net 5))\u000a  (segment (start -33.475 34.05) (end -33.700001 34.275001) (width 0.5) (layer F.Cu) (net 5))\u000a  (segment (start -38.914501 43.735499) (end -36.75 45.9) (width 0.5) (layer B.Cu) (net 5))\u000a  (segment (start -38.914501 36.199497) (end -38.914501 43.735499) (width 0.5) (layer B.Cu) (net 5))\u000a  (segment (start -40.025 35.088998) (end -38.914501 36.199497) (width 0.5) (layer B.Cu) (net 5))\u000a  (segment (start -40.025 34.05) (end -40.025 35.088998) (width 0.5) (layer B.Cu) (net 5))\u000a  (segment (start -32.975 33.55) (end -33.475 34.05) (width 0.5) (layer F.Cu) (net 5))\u000a  (segment (start -26.8 33.55) (end -32.975 33.55) (width 0.5) (layer F.Cu) (net 5))\u000a  (segment (start -16.414501 -36.264501) (end -14.25 -34.1) (width 0.5) (layer B.Cu) (net 6))\u000a  (segment (start -16.414501 -43.800503) (end -16.414501 -36.264501) (width 0.5) (layer B.Cu) (net 6))\u000a  (segment (start -17.525 -44.911002) (end -16.414501 -43.800503) (width 0.5) (layer B.Cu) (net 6))\u000a  (segment (start -17.525 -45.95) (end -17.525 -44.911002) (width 0.5) (layer B.Cu) (net 6))\u000a  (segment (start -11.200001 -45.724999) (end -11.200001 -37.149999) (width 0.5) (layer F.Cu) (net 6))\u000a  (segment (start -11.200001 -37.149999) (end -14.25 -34.1) (width 0.5) (layer F.Cu) (net 6))\u000a  (segment (start -10.975 -45.95) (end -11.200001 -45.724999) (width 0.5) (layer F.Cu) (net 6))\u000a  (segment (start -24.275001 -35.000001) (end -24.275001 -41.475001) (width 0.5) (layer F.Cu) (net 6))\u000a  (segment (start -24.1 -34.825) (end -24.275001 -35.000001) (width 0.5) (layer F.Cu) (net 6))\u000a  (segment (start -24.275001 -41.475001) (end -24.7 -41.9) (width 0.5) (layer F.Cu) (net 6))\u000a  (segment (start -24.7 -41.9) (end -24.7 -46.5) (width 0.5) (layer F.Cu) (net 6))\u000a  (segment (start -10.975 -47.975) (end -10.975 -45.95) (width 0.5) (layer F.Cu) (net 6))\u000a  (segment (start -16.414501 -16.264501) (end -14.25 -14.1) (width 0.5) (layer B.Cu) (net 7))\u000a  (segment (start -16.414501 -24.839501) (end -16.414501 -16.264501) (width 0.5) (layer B.Cu) (net 7))\u000a  (segment (start -17.525 -25.95) (end -16.414501 -24.839501) (width 0.5) (layer B.Cu) (net 7))\u000a  (segment (start -11.200001 -17.149999) (end -14.25 -14.1) (width 0.5) (layer F.Cu) (net 7))\u000a  (segment (start -11.200001 -25.724999) (end -11.200001 -17.149999) (width 0.5) (layer F.Cu) (net 7))\u000a  (segment (start -10.975 -25.95) (end -11.200001 -25.724999) (width 0.5) (layer F.Cu) (net 7))\u000a  (segment (start -24.2 -27.45) (end -20.75 -27.45) (width 0.5) (layer F.Cu) (net 7))\u000a  (segment (start -10.975 -28.375) (end -10.975 -25.95) (width 0.5) (layer F.Cu) (net 7))\u000a  (segment (start -11.0815 -28.4815) (end -10.975 -28.375) (width 0.5) (layer F.Cu) (net 7))\u000a  (segment (start -19.7185 -28.4815) (end -11.0815 -28.4815) (width 0.5) (layer F.Cu) (net 7))\u000a  (segment (start -20.75 -27.45) (end -19.7185 -28.4815) (width 0.5) (layer F.Cu) (net 7))\u000a  (segment (start -11.200001 22.850001) (end -14.25 25.9) (width 0.5) (layer F.Cu) (net 8))\u000a  (segment (start -11.200001 14.275001) (end -11.200001 22.850001) (width 0.5) (layer F.Cu) (net 8))\u000a  (segment (start -10.975 14.05) (end -11.200001 14.275001) (width 0.5) (layer F.Cu) (net 8))\u000a  (segment (start -16.414501 23.735499) (end -14.25 25.9) (width 0.5) (layer B.Cu) (net 8))\u000a  (segment (start -16.414501 15.160499) (end -16.414501 23.735499) (width 0.5) (layer B.Cu) (net 8))\u000a  (segment (start -17.525 14.05) (end -16.414501 15.160499) (width 0.5) (layer B.Cu) (net 8))\u000a  (segment (start -24.1 11.2) (end -11.4 11.2) (width 0.5) (layer F.Cu) (net 8))\u000a  (segment (start -10.975 11.625) (end -10.975 14.05) (width 0.5) (layer F.Cu) (net 8))\u000a  (segment (start -11.4 11.2) (end -10.975 11.625) (width 0.5) (layer F.Cu) (net 8))\u000a  (segment (start -17.525 35.088998) (end -16.414501 36.199497) (width 0.5) (layer B.Cu) (net 9))\u000a  (segment (start -16.414501 43.735499) (end -14.25 45.9) (width 0.5) (layer B.Cu) (net 9))\u000a  (segment (start -16.414501 36.199497) (end -16.414501 43.735499) (width 0.5) (layer B.Cu) (net 9))\u000a  (segment (start -17.525 34.05) (end -17.525 35.088998) (width 0.5) (layer B.Cu) (net 9))\u000a  (segment (start -12.085499 43.735499) (end -14.25 45.9) (width 0.5) (layer F.Cu) (net 9))\u000a  (segment (start -12.085499 36.199497) (end -12.085499 43.735499) (width 0.5) (layer F.Cu) (net 9))\u000a  (segment (start -10.975 35.088998) (end -12.085499 36.199497) (width 0.5) (layer F.Cu) (net 9))\u000a  (segment (start -10.975 34.05) (end -10.975 35.088998) (width 0.5) (layer F.Cu) (net 9))\u000a  (segment (start -23.8 33.525) (end -21.625 33.525) (width 0.5) (layer F.Cu) (net 9))\u000a  (segment (start -21.625 33.525) (end -19.6 31.5) (width 0.5) (layer F.Cu) (net 9))\u000a  (segment (start -19.6 31.5) (end -11.8 31.5) (width 0.5) (layer F.Cu) (net 9))\u000a  (segment (start -10.975 32.325) (end -10.975 34.05) (width 0.5) (layer F.Cu) (net 9))\u000a  (segment (start -11.8 31.5) (end -10.975 32.325) (width 0.5) (layer F.Cu) (net 9))\u000a  (segment (start -17.299999 2.850001) (end -14.25 5.9) (width 0.5) (layer B.Cu) (net 10))\u000a  (segment (start -17.299999 -5.724999) (end -17.299999 2.850001) (width 0.5) (layer B.Cu) (net 10))\u000a  (segment (start -17.525 -5.95) (end -17.299999 -5.724999) (width 0.5) (layer B.Cu) (net 10))\u000a  (segment (start -11.200001 2.850001) (end -14.25 5.9) (width 0.5) (layer F.Cu) (net 10))\u000a  (segment (start -11.200001 -5.724999) (end -11.200001 2.850001) (width 0.5) (layer F.Cu) (net 10))\u000a  (segment (start -10.975 -5.95) (end -11.200001 -5.724999) (width 0.5) (layer F.Cu) (net 10))\u000a  (segment (start -10.975 -5.95) (end -10.975 -6.675) (width 0.5) (layer F.Cu) (net 10))\u000a  (segment (start -23.474999 -7.900001) (end -24 -7.375) (width 0.5) (layer F.Cu) (net 10))\u000a  (segment (start -12.200001 -7.900001) (end -23.474999 -7.900001) (width 0.5) (layer F.Cu) (net 10))\u000a  (segment (start -10.975 -6.675) (end -12.200001 -7.900001) (width 0.5) (layer F.Cu) (net 10))\u000a  (segment (start -24.125 -32.8) (end -24.1 -32.775) (width 0.5) (layer F.Cu) (net 11))\u000a  (segment (start -26.9 -32.8) (end -24.125 -32.8) (width 0.5) (layer F.Cu) (net 11))\u000a  (segment (start -40.386 -30.353) (end -31.877 -30.353) (width 0.5) (layer F.Cu) (net 11))\u000a  (segment (start -31.877 -30.353) (end -29.43 -32.8) (width 0.5) (layer F.Cu) (net 11))\u000a  (segment (start -29.43 -32.8) (end -26.9 -32.8) (width 0.5) (layer F.Cu) (net 11))\u000a  (segment (start -6.223 -36.449) (end -4.572 -38.1) (width 0.5) (layer F.Cu) (net 11))\u000a  (segment (start -4.572 -38.1) (end -3 -38.1) (width 0.5) (layer F.Cu) (net 11))\u000a  (segment (start -24.1 -32.775) (end -21.98 -32.775) (width 0.5) (layer F.Cu) (net 11))\u000a  (segment (start -8.636 -30.734) (end -6.223 -33.147) (width 0.5) (layer F.Cu) (net 11))\u000a  (segment (start -19.939 -30.734) (end -8.636 -30.734) (width 0.5) (layer F.Cu) (net 11))\u000a  (segment (start -6.223 -33.147) (end -6.223 -36.449) (width 0.5) (layer F.Cu) (net 11))\u000a  (segment (start -21.98 -32.775) (end -19.939 -30.734) (width 0.5) (layer F.Cu) (net 11))\u000a  (segment (start -45.593 -35.693) (end -45.593 -35.56) (width 0.5) (layer F.Cu) (net 11))\u000a  (segment (start -48 -38.1) (end -45.593 -35.693) (width 0.5) (layer F.Cu) (net 11))\u000a  (segment (start -45.593 -35.56) (end -40.386 -30.353) (width 0.5) (layer F.Cu) (net 11))\u000a  (segment (start -26.925 -29.5) (end -27 -29.425) (width 0.5) (layer F.Cu) (net 12))\u000a  (segment (start -24.2 -29.5) (end -26.925 -29.5) (width 0.5) (layer F.Cu) (net 12))\u000a  (segment (start -41.865 -29.425) (end -27 -29.425) (width 0.5) (layer F.Cu) (net 12))\u000a  (segment (start -48 -35.56) (end -41.865 -29.425) (width 0.5) (layer F.Cu) (net 12))\u000a  (segment (start -8.245038 -29.5) (end -24.2 -29.5) (width 0.5) (layer F.Cu) (net 12))\u000a  (segment (start -4.300001 -34.259999) (end -4.300001 -33.445037) (width 0.5) (layer F.Cu) (net 12))\u000a  (segment (start -4.300001 -33.445037) (end -8.245038 -29.5) (width 0.5) (layer F.Cu) (net 12))\u000a  (segment (start -3 -35.56) (end -4.300001 -34.259999) (width 0.5) (layer F.Cu) (net 12))\u000a  (segment (start -26.975 -9.425) (end -27 -9.45) (width 0.5) (layer F.Cu) (net 13))\u000a  (segment (start -24 -9.425) (end -26.975 -9.425) (width 0.5) (layer F.Cu) (net 13))\u000a  (segment (start -27 -13.619682) (end -27 -9.45) (width 0.5) (layer F.Cu) (net 13))\u000a  (segment (start -32.453681 -17.666001) (end -31.046319 -17.666001) (width 0.5) (layer F.Cu) (net 13))\u000a  (segment (start -33.216001 -16.903681) (end -32.453681 -17.666001) (width 0.5) (layer F.Cu) (net 13))\u000a  (segment (start -33.216001 -15.496319) (end -33.216001 -16.903681) (width 0.5) (layer F.Cu) (net 13))\u000a  (segment (start -36.078321 -12.633999) (end -33.216001 -15.496319) (width 0.5) (layer F.Cu) (net 13))\u000a  (segment (start -31.046319 -17.666001) (end -27 -13.619682) (width 0.5) (layer F.Cu) (net 13))\u000a  (segment (start -37.453681 -12.633999) (end -36.078321 -12.633999) (width 0.5) (layer F.Cu) (net 13))\u000a  (segment (start -39.799999 -14.980317) (end -37.453681 -12.633999) (width 0.5) (layer F.Cu) (net 13))\u000a  (segment (start -39.799999 -24.819999) (end -39.799999 -14.980317) (width 0.5) (layer F.Cu) (net 13))\u000a  (segment (start -48 -33.02) (end -39.799999 -24.819999) (width 0.5) (layer F.Cu) (net 13))\u000a  (segment (start -11.385038 -9.425) (end -5.969 -14.841038) (width 0.5) (layer F.Cu) (net 13))\u000a  (segment (start -24 -9.425) (end -11.385038 -9.425) (width 0.5) (layer F.Cu) (net 13))\u000a  (segment (start -5.969 -30.051) (end -3 -33.02) (width 0.5) (layer F.Cu) (net 13))\u000a  (segment (start -5.969 -14.841038) (end -5.969 -30.051) (width 0.5) (layer F.Cu) (net 13))\u000a  (segment (start -24.1 9.15) (end -27.1 9.15) (width 0.5) (layer F.Cu) (net 14))\u000a  (segment (start -48 -30.48) (end -44.958 -27.438) (width 0.5) (layer B.Cu) (net 14))\u000a  (segment (start -44.958 -27.438) (end -44.958 -12.827) (width 0.5) (layer B.Cu) (net 14))\u000a  (segment (start -44.958 -12.827) (end -41.91 -9.779) (width 0.5) (layer B.Cu) (net 14))\u000a  (segment (start -33.700001 -5.786003) (end -33.700001 7.320999) (width 0.5) (layer B.Cu) (net 14))\u000a  (segment (start -37.692998 -9.779) (end -33.700001 -5.786003) (width 0.5) (layer B.Cu) (net 14))\u000a  (segment (start -41.91 -9.779) (end -37.692998 -9.779) (width 0.5) (layer B.Cu) (net 14))\u000a  (via (at -30.861 9.017) (size 0.8) (drill 0.4) (layers F.Cu B.Cu) (net 14))\u000a  (segment (start -32.004 9.017) (end -30.861 9.017) (width 0.5) (layer B.Cu) (net 14))\u000a  (segment (start -33.700001 7.320999) (end -32.004 9.017) (width 0.5) (layer B.Cu) (net 14))\u000a  (segment (start -27.233 9.017) (end -27.1 9.15) (width 0.5) (layer F.Cu) (net 14))\u000a  (segment (start -30.861 9.017) (end -27.233 9.017) (width 0.5) (layer F.Cu) (net 14))\u000a  (segment (start -9.023 9.15) (end -24.1 9.15) (width 0.5) (layer F.Cu) (net 14))\u000a  (segment (start -5.461 -13.462) (end -5.461 5.588) (width 0.5) (layer F.Cu) (net 14))\u000a  (segment (start -4.826 -14.097) (end -5.461 -13.462) (width 0.5) (layer F.Cu) (net 14))\u000a  (segment (start -5.461 5.588) (end -9.023 9.15) (width 0.5) (layer F.Cu) (net 14))\u000a  (segment (start -4.826 -29.464) (end -4.826 -14.097) (width 0.5) (layer F.Cu) (net 14))\u000a  (segment (start -3.81 -30.48) (end -4.826 -29.464) (width 0.5) (layer F.Cu) (net 14))\u000a  (segment (start -3 -30.48) (end -3.81 -30.48) (width 0.5) (layer F.Cu) (net 14))\u000a  (segment (start -23.825 31.5) (end -23.8 31.475) (width 0.5) (layer F.Cu) (net 15))\u000a  (segment (start -26.8 31.5) (end -23.825 31.5) (width 0.5) (layer F.Cu) (net 15))\u000a  (via (at -8.509 11.303) (size 0.8) (drill 0.4) (layers F.Cu B.Cu) (net 15))\u000a  (via (at -22.098 31.369) (size 0.8) (drill 0.4) (layers F.Cu B.Cu) (net 15))\u000a  (segment (start -22.204 31.475) (end -22.098 31.369) (width 0.5) (layer F.Cu) (net 15))\u000a  (segment (start -23.8 31.475) (end -22.204 31.475) (width 0.5) (layer F.Cu) (net 15))\u000a  (segment (start -22.098 31.369) (end -22.098 12.192) (width 0.5) (layer B.Cu) (net 15))\u000a  (segment (start -22.098 12.192) (end -20.955 11.049) (width 0.5) (layer B.Cu) (net 15))\u000a  (segment (start -8.763 11.049) (end -8.509 11.303) (width 0.5) (layer B.Cu) (net 15))\u000a  (segment (start -20.955 11.049) (end -8.763 11.049) (width 0.5) (layer B.Cu) (net 15))\u000a  (segment (start -3 -12.113) (end -3 -27.94) (width 0.5) (layer F.Cu) (net 15))\u000a  (segment (start -4.318 -10.795) (end -3 -12.113) (width 0.5) (layer F.Cu) (net 15))\u000a  (segment (start -4.318 9.906) (end -4.318 -10.795) (width 0.5) (layer F.Cu) (net 15))\u000a  (segment (start -5.715 11.303) (end -4.318 9.906) (width 0.5) (layer F.Cu) (net 15))\u000a  (segment (start -8.509 11.303) (end -5.715 11.303) (width 0.5) (layer F.Cu) (net 15))\u000a  (via (at -44.323 30.607) (size 0.8) (drill 0.4) (layers F.Cu B.Cu) (net 15))\u000a  (segment (start -43.43 31.5) (end -44.323 30.607) (width 0.5) (layer F.Cu) (net 15))\u000a  (segment (start -26.8 31.5) (end -43.43 31.5) (width 0.5) (layer F.Cu) (net 15))\u000a  (segment (start -44.323 30.607) (end -44.323 13.843) (width 0.5) (layer B.Cu) (net 15))\u000a  (segment (start -44.323 13.843) (end -44.704 13.462) (width 0.5) (layer B.Cu) (net 15))\u000a  (segment (start -44.704 13.462) (end -44.704 -9.779) (width 0.5) (layer B.Cu) (net 15))\u000a  (segment (start -48 -13.075) (end -48 -27.94) (width 0.5) (layer B.Cu) (net 15))\u000a  (segment (start -44.704 -9.779) (end -48 -13.075) (width 0.5) (layer B.Cu) (net 15))\u000a  (segment (start -45.025 36.25) (end -47.55 36.25) (width 0.5) (layer F.Cu) (net 16))\u000a  (segment (start -47.55 36.25) (end -48 36.7) (width 0.5) (layer F.Cu) (net 16))\u000a  (segment (start -48 29.62) (end -48 36.7) (width 0.5) (layer F.Cu) (net 16))\u000a  (segment (start -28.475 36.25) (end -28.475 42.375) (width 0.5) (layer B.Cu) (net 16))\u000a  (segment (start -29.9 43.8) (end -31.75 43.8) (width 0.5) (layer B.Cu) (net 16))\u000a  (segment (start -28.475 42.375) (end -29.9 43.8) (width 0.5) (layer B.Cu) (net 16))\u000a  (segment (start -45.025 36.25) (end -45.025 42.775) (width 0.5) (layer F.Cu) (net 16))\u000a  (segment (start -44 43.8) (end -41.75 43.8) (width 0.5) (layer F.Cu) (net 16))\u000a  (segment (start -45.025 42.775) (end -44 43.8) (width 0.5) (layer F.Cu) (net 16))\u000a  (segment (start -28.475 16.25) (end -28.475 22.675) (width 0.5) (layer B.Cu) (net 16))\u000a  (segment (start -29.6 23.8) (end -31.75 23.8) (width 0.5) (layer B.Cu) (net 16))\u000a  (segment (start -28.475 22.675) (end -29.6 23.8) (width 0.5) (layer B.Cu) (net 16))\u000a  (segment (start -45.025 16.25) (end -45.025 22.175) (width 0.5) (layer F.Cu) (net 16))\u000a  (segment (start -43.4 23.8) (end -41.75 23.8) (width 0.5) (layer F.Cu) (net 16))\u000a  (segment (start -45.025 22.175) (end -43.4 23.8) (width 0.5) (layer F.Cu) (net 16))\u000a  (segment (start -45.025 -3.75) (end -45.025 2.675) (width 0.5) (layer F.Cu) (net 16))\u000a  (segment (start -43.9 3.8) (end -41.75 3.8) (width 0.5) (layer F.Cu) (net 16))\u000a  (segment (start -45.025 2.675) (end -43.9 3.8) (width 0.5) (layer F.Cu) (net 16))\u000a  (segment (start -28.475 -3.75) (end -28.475 2.475) (width 0.5) (layer B.Cu) (net 16))\u000a  (segment (start -29.8 3.8) (end -31.75 3.8) (width 0.5) (layer B.Cu) (net 16))\u000a  (segment (start -28.475 2.475) (end -29.8 3.8) (width 0.5) (layer B.Cu) (net 16))\u000a  (segment (start -28.475 -23.75) (end -28.475 -17.525) (width 0.5) (layer B.Cu) (net 16))\u000a  (segment (start -29.8 -16.2) (end -31.75 -16.2) (width 0.5) (layer B.Cu) (net 16))\u000a  (segment (start -28.475 -17.525) (end -29.8 -16.2) (width 0.5) (layer B.Cu) (net 16))\u000a  (segment (start -45.025 -23.75) (end -45.025 -17.525) (width 0.5) (layer F.Cu) (net 16))\u000a  (segment (start -43.7 -16.2) (end -41.75 -16.2) (width 0.5) (layer F.Cu) (net 16))\u000a  (segment (start -45.025 -17.525) (end -43.7 -16.2) (width 0.5) (layer F.Cu) (net 16))\u000a  (segment (start -45.025 -43.75) (end -45.025 -37.525) (width 0.5) (layer F.Cu) (net 16))\u000a  (segment (start -43.7 -36.2) (end -41.75 -36.2) (width 0.5) (layer F.Cu) (net 16))\u000a  (segment (start -45.025 -37.525) (end -43.7 -36.2) (width 0.5) (layer F.Cu) (net 16))\u000a  (segment (start -28.475 -43.75) (end -28.475 -36.825) (width 0.5) (layer B.Cu) (net 16))\u000a  (segment (start -29.1 -36.2) (end -31.75 -36.2) (width 0.5) (layer B.Cu) (net 16))\u000a  (segment (start -28.475 -36.825) (end -29.1 -36.2) (width 0.5) (layer B.Cu) (net 16))\u000a  (segment (start -49.300001 28.319999) (end -49.300001 17.800001) (width 0.5) (layer F.Cu) (net 16))\u000a  (segment (start -48 29.62) (end -49.300001 28.319999) (width 0.5) (layer F.Cu) (net 16))\u000a  (segment (start -47.75 16.25) (end -45.025 16.25) (width 0.5) (layer F.Cu) (net 16))\u000a  (segment (start -49.300001 17.800001) (end -47.75 16.25) (width 0.5) (layer F.Cu) (net 16))\u000a  (segment (start -41.75 23.8) (end -37.75 27.8) (width 0.5) (layer F.Cu) (net 16))\u000a  (segment (start -35.75 27.8) (end -31.75 23.8) (width 0.5) (layer F.Cu) (net 16))\u000a  (segment (start -37.75 27.8) (end -35.75 27.8) (width 0.5) (layer F.Cu) (net 16))\u000a  (segment (start -41.75 43.8) (end -41.75 45.65) (width 0.5) (layer F.Cu) (net 16))\u000a  (segment (start -31.75 45.85) (end -31.75 43.8) (width 0.5) (layer F.Cu) (net 16))\u000a  (segment (start -41.75 3.8) (end -41.75 6.55) (width 0.5) (layer F.Cu) (net 16))\u000a  (segment (start -41.75 6.55) (end -40.4 7.9) (width 0.5) (layer F.Cu) (net 16))\u000a  (segment (start -40.4 7.9) (end -34 7.9) (width 0.5) (layer F.Cu) (net 16))\u000a  (segment (start -31.75 5.65) (end -31.75 3.8) (width 0.5) (layer F.Cu) (net 16))\u000a  (segment (start -34 7.9) (end -31.75 5.65) (width 0.5) (layer F.Cu) (net 16))\u000a  (segment (start -41.75 -16.2) (end -41.75 -13.25) (width 0.5) (layer F.Cu) (net 16))\u000a  (segment (start -41.75 -13.25) (end -40.1 -11.6) (width 0.5) (layer F.Cu) (net 16))\u000a  (segment (start -40.1 -11.6) (end -33.5 -11.6) (width 0.5) (layer F.Cu) (net 16))\u000a  (segment (start -31.75 -13.35) (end -31.75 -16.2) (width 0.5) (layer F.Cu) (net 16))\u000a  (segment (start -33.5 -11.6) (end -31.75 -13.35) (width 0.5) (layer F.Cu) (net 16))\u000a  (segment (start -41.75 -36.2) (end -41.75 -34.05) (width 0.5) (layer F.Cu) (net 16))\u000a  (segment (start -41.75 -34.05) (end -39.1 -31.4) (width 0.5) (layer F.Cu) (net 16))\u000a  (segment (start -39.1 -31.4) (end -33 -31.4) (width 0.5) (layer F.Cu) (net 16))\u000a  (segment (start -31.75 -32.65) (end -31.75 -36.2) (width 0.5) (layer F.Cu) (net 16))\u000a  (segment (start -33 -31.4) (end -31.75 -32.65) (width 0.5) (layer F.Cu) (net 16))\u000a  (segment (start -45.025 16.25) (end -45.025 2.675) (width 0.5) (layer F.Cu) (net 16))\u000a  (segment (start -45.025 -17.525) (end -45.025 -3.75) (width 0.5) (layer F.Cu) (net 16))\u000a  (segment (start -28.475 -32.925) (end -31.75 -36.2) (width 0.5) (layer B.Cu) (net 16))\u000a  (segment (start -28.475 -23.75) (end -28.475 -32.925) (width 0.5) (layer B.Cu) (net 16))\u000a  (segment (start -28.475 -12.925) (end -31.75 -16.2) (width 0.5) (layer B.Cu) (net 16))\u000a  (segment (start -28.475 -3.75) (end -28.475 -12.925) (width 0.5) (layer B.Cu) (net 16))\u000a  (segment (start -28.475 7.075) (end -31.75 3.8) (width 0.5) (layer B.Cu) (net 16))\u000a  (segment (start -28.475 16.25) (end -28.475 7.075) (width 0.5) (layer B.Cu) (net 16))\u000a  (segment (start -28.475 27.075) (end -31.75 23.8) (width 0.5) (layer B.Cu) (net 16))\u000a  (segment (start -28.475 36.25) (end -28.475 27.075) (width 0.5) (layer B.Cu) (net 16))\u000a  (segment (start -3 33) (end -5 31) (width 0.5) (layer B.Cu) (net 17))\u000a  (segment (start -5 29.08) (end -3 27.08) (width 0.5) (layer B.Cu) (net 17))\u000a  (segment (start -5 31) (end -5 29.08) (width 0.5) (layer B.Cu) (net 17))\u000a  (segment (start -46.08 29) (end -46.08 30.92) (width 0.5) (layer B.Cu) (net 17))\u000a  (segment (start -46.08 30.92) (end -48 32.84) (width 0.5) (layer B.Cu) (net 17))\u000a  (segment (start -48 27.08) (end -46.08 29) (width 0.5) (layer B.Cu) (net 17))\u000a  (segment (start -5.975 36.25) (end -3.35 36.25) (width 0.5) (layer B.Cu) (net 17))\u000a  (segment (start -3.35 36.25) (end -3 35.9) (width 0.5) (layer B.Cu) (net 17))\u000a  (segment (start -22.525 36.25) (end -22.525 40.525) (width 0.5) (layer F.Cu) (net 17))\u000a  (segment (start -19.25 43.8) (end -21.5 43.8) (width 0.5) (layer F.Cu) (net 17))\u000a  (segment (start -22.525 42.775) (end -22.525 40.525) (width 0.5) (layer F.Cu) (net 17))\u000a  (segment (start -21.5 43.8) (end -22.525 42.775) (width 0.5) (layer F.Cu) (net 17))\u000a  (segment (start -5.975 36.25) (end -5.975 42.875) (width 0.5) (layer B.Cu) (net 17))\u000a  (segment (start -6.9 43.8) (end -9.25 43.8) (width 0.5) (layer B.Cu) (net 17))\u000a  (segment (start -5.975 42.875) (end -6.9 43.8) (width 0.5) (layer B.Cu) (net 17))\u000a  (segment (start -5.975 16.25) (end -5.975 21.775) (width 0.5) (layer B.Cu) (net 17))\u000a  (segment (start -8 23.8) (end -9.25 23.8) (width 0.5) (layer B.Cu) (net 17))\u000a  (segment (start -5.975 21.775) (end -8 23.8) (width 0.5) (layer B.Cu) (net 17))\u000a  (segment (start -22.525 16.25) (end -22.525 22.075) (width 0.5) (layer F.Cu) (net 17))\u000a  (segment (start -20.8 23.8) (end -19.25 23.8) (width 0.5) (layer F.Cu) (net 17))\u000a  (segment (start -22.525 22.075) (end -20.8 23.8) (width 0.5) (layer F.Cu) (net 17))\u000a  (segment (start -22.525 -3.75) (end -22.525 2.675) (width 0.5) (layer F.Cu) (net 17))\u000a  (segment (start -21.4 3.8) (end -19.25 3.8) (width 0.5) (layer F.Cu) (net 17))\u000a  (segment (start -22.525 2.675) (end -21.4 3.8) (width 0.5) (layer F.Cu) (net 17))\u000a  (segment (start -5.975 -3.75) (end -5.975 2.875) (width 0.5) (layer B.Cu) (net 17))\u000a  (segment (start -6.9 3.8) (end -9.25 3.8) (width 0.5) (layer B.Cu) (net 17))\u000a  (segment (start -5.975 2.875) (end -6.9 3.8) (width 0.5) (layer B.Cu) (net 17))\u000a  (segment (start -5.975 -23.75) (end -5.975 -17.225) (width 0.5) (layer B.Cu) (net 17))\u000a  (segment (start -7 -16.2) (end -9.25 -16.2) (width 0.5) (layer B.Cu) (net 17))\u000a  (segment (start -5.975 -17.225) (end -7 -16.2) (width 0.5) (layer B.Cu) (net 17))\u000a  (segment (start -22.525 -23.75) (end -22.525 -17.225) (width 0.5) (layer F.Cu) (net 17))\u000a  (segment (start -21.5 -16.2) (end -19.25 -16.2) (width 0.5) (layer F.Cu) (net 17))\u000a  (segment (start -22.525 -17.225) (end -21.5 -16.2) (width 0.5) (layer F.Cu) (net 17))\u000a  (segment (start -22.525 -43.75) (end -22.525 -37.325) (width 0.5) (layer F.Cu) (net 17))\u000a  (segment (start -21.4 -36.2) (end -19.25 -36.2) (width 0.5) (layer F.Cu) (net 17))\u000a  (segment (start -22.525 -37.325) (end -21.4 -36.2) (width 0.5) (layer F.Cu) (net 17))\u000a  (segment (start -5.975 -43.75) (end -5.975 -37.525) (width 0.5) (layer B.Cu) (net 17))\u000a  (segment (start -7.3 -36.2) (end -9.25 -36.2) (width 0.5) (layer B.Cu) (net 17))\u000a  (segment (start -5.975 -37.525) (end -7.3 -36.2) (width 0.5) (layer B.Cu) (net 17))\u000a  (segment (start -19.25 23.8) (end -15.25 27.8) (width 0.5) (layer F.Cu) (net 17))\u000a  (segment (start -13.25 27.8) (end -9.25 23.8) (width 0.5) (layer F.Cu) (net 17))\u000a  (segment (start -15.25 27.8) (end -13.25 27.8) (width 0.5) (layer F.Cu) (net 17))\u000a  (segment (start -19.25 43.8) (end -19.25 45.45) (width 0.5) (layer F.Cu) (net 17))\u000a  (segment (start -9.25 45.65) (end -9.25 43.8) (width 0.5) (layer F.Cu) (net 17))\u000a  (segment (start -19.25 3.8) (end -19.25 5.75) (width 0.5) (layer F.Cu) (net 17))\u000a  (segment (start -19.25 5.75) (end -17 8) (width 0.5) (layer F.Cu) (net 17))\u000a  (segment (start -17 8) (end -11.3 8) (width 0.5) (layer F.Cu) (net 17))\u000a  (segment (start -9.25 5.95) (end -9.25 3.8) (width 0.5) (layer F.Cu) (net 17))\u000a  (segment (start -11.3 8) (end -9.25 5.95) (width 0.5) (layer F.Cu) (net 17))\u000a  (segment (start -19.25 -16.2) (end -19.25 -12.45) (width 0.5) (layer F.Cu) (net 17))\u000a  (segment (start -19.25 -12.45) (end -18.6 -11.8) (width 0.5) (layer F.Cu) (net 17))\u000a  (segment (start -18.6 -11.8) (end -10 -11.8) (width 0.5) (layer F.Cu) (net 17))\u000a  (segment (start -9.25 -12.55) (end -9.25 -16.2) (width 0.5) (layer F.Cu) (net 17))\u000a  (segment (start -10 -11.8) (end -9.25 -12.55) (width 0.5) (layer F.Cu) (net 17))\u000a  (segment (start -19.25 -36.2) (end -19.25 -33.05) (width 0.5) (layer F.Cu) (net 17))\u000a  (segment (start -19.25 -33.05) (end -17.7 -31.5) (width 0.5) (layer F.Cu) (net 17))\u000a  (segment (start -17.7 -31.5) (end -10.6 -31.5) (width 0.5) (layer F.Cu) (net 17))\u000a  (segment (start -9.25 -32.85) (end -9.25 -36.2) (width 0.5) (layer F.Cu) (net 17))\u000a  (segment (start -10.6 -31.5) (end -9.25 -32.85) (width 0.5) (layer F.Cu) (net 17))\u000a  (segment (start -3 35.9) (end -3 34.7) (width 0.5) (layer B.Cu) (net 17))\u000a  (segment (start -3 34.7) (end -3 33) (width 0.5) (layer B.Cu) (net 17))\u000a  (segment (start -1.47501 18.12499) (end -3.35 16.25) (width 0.5) (layer B.Cu) (net 17))\u000a  (segment (start -1.47501 31.57501) (end -1.47501 18.12499) (width 0.5) (layer B.Cu) (net 17))\u000a  (segment (start -3 33.1) (end -1.47501 31.57501) (width 0.5) (layer B.Cu) (net 17))\u000a  (segment (start -3.35 16.25) (end -5.975 16.25) (width 0.5) (layer B.Cu) (net 17))\u000a  (segment (start -3 34.7) (end -3 33.1) (width 0.5) (layer B.Cu) (net 17))\u000a  (segment (start -5.975 2.875) (end -5.975 16.25) (width 0.5) (layer B.Cu) (net 17))\u000a  (segment (start -5.975 -17.225) (end -5.975 -3.75) (width 0.5) (layer B.Cu) (net 17))\u000a  (segment (start -5.975 -37.525) (end -5.975 -23.75) (width 0.5) (layer B.Cu) (net 17))\u000a  (segment (start -48 24.54) (end -46.46 24.54) (width 0.5) (layer F.Cu) (net 18))\u000a  (segment (start -3 24.54) (end -4.54 24.54) (width 0.5) (layer F.Cu) (net 18))\u000a  (segment (start -45.4 25.6) (end -45.4 28) (width 0.5) (layer F.Cu) (net 18))\u000a  (segment (start -46.46 24.54) (end -45.4 25.6) (width 0.5) (layer F.Cu) (net 18))\u000a  (segment (start -45.4 28) (end -43.2 30.2) (width 0.5) (layer F.Cu) (net 18))\u000a  (segment (start -43.2 30.2) (end -7.8 30.2) (width 0.5) (layer F.Cu) (net 18))\u000a  (segment (start -5.9 28.3) (end -5.9 25.9) (width 0.5) (layer F.Cu) (net 18))\u000a  (segment (start -7.8 30.2) (end -5.9 28.3) (width 0.5) (layer F.Cu) (net 18))\u000a  (segment (start -4.54 24.54) (end -5.9 25.9) (width 0.5) (layer F.Cu) (net 18))\u000a  (segment (start -47 22) (end -48 22) (width 0.5) (layer F.Cu) (net 19))\u000a  (segment (start -44.5 24.5) (end -47 22) (width 0.5) (layer F.Cu) (net 19))\u000a  (segment (start -42.7 29.2) (end -44.5 27.4) (width 0.5) (layer F.Cu) (net 19))\u000a  (segment (start -8.1 29.2) (end -42.7 29.2) (width 0.5) (layer F.Cu) (net 19))\u000a  (segment (start -44.5 27.4) (end -44.5 24.5) (width 0.5) (layer F.Cu) (net 19))\u000a  (segment (start -7.1 28.2) (end -8.1 29.2) (width 0.5) (layer F.Cu) (net 19))\u000a  (segment (start -7.1 25.1) (end -7.1 28.2) (width 0.5) (layer F.Cu) (net 19))\u000a  (segment (start -4 22) (end -7.1 25.1) (width 0.5) (layer F.Cu) (net 19))\u000a  (segment (start -3 22) (end -4 22) (width 0.5) (layer F.Cu) (net 19))\u000a\u000a)\u000a
p3
S'a4047019f2bcfa0e04d451fc35298634'
p4
(dp5
V6147F031
p6
(lp7
V2x4-keys
p8
aVfile6147F030.sch
p9
as(lp10
VCOL-B
p11
aVNet-(D9-Pad2)
p12
aV
p13
aVNet-(D8-Pad2)
p14
aVNet-(D10-Pad2)
p15
aVNet-(D7-Pad2)
p16
aVNet-(D6-Pad2)
p17
aVCOL-A
p18
aVNet-(D5-Pad2)
p19
aVNet-(D4-Pad2)
p20
aVNet-(D3-Pad2)
p21
aVNet-(D2-Pad2)
p22
aVNet-(D1-Pad2)
p23
aVCOL-C
p24
aVCOL-D
p25
aVROW-A
p26
aVROW-B
p27
aVROW-C
p28
aVROW-D
p29
aVROW-E
p30
a(lp31
g8
a(lp32
g9
atp33
tp34
Rp35
.