ccopy_reg
_reconstructor
p0
(cKicad_action_plugins.save_restore_layout.save_restore_layout
LayoutData
p1
c__builtin__
tuple
p2
(V(kicad_pcb (version 20171130) (host pcbnew "(5.1.9-0-10_14)")\u000a\u000a  (general\u000a    (thickness 1.6)\u000a    (drawings 0)\u000a    (tracks 93)\u000a    (zones 0)\u000a    (modules 3)\u000a    (nets 8)\u000a  )\u000a\u000a  (page A4)\u000a  (layers\u000a    (0 F.Cu signal)\u000a    (31 B.Cu signal)\u000a    (32 B.Adhes user)\u000a    (33 F.Adhes user)\u000a    (34 B.Paste user)\u000a    (35 F.Paste user)\u000a    (36 B.SilkS user)\u000a    (37 F.SilkS user)\u000a    (38 B.Mask user)\u000a    (39 F.Mask user)\u000a    (40 Dwgs.User user)\u000a    (41 Cmts.User user)\u000a    (42 Eco1.User user)\u000a    (43 Eco2.User user)\u000a    (44 Edge.Cuts user)\u000a    (45 Margin user)\u000a    (46 B.CrtYd user)\u000a    (47 F.CrtYd user)\u000a    (48 B.Fab user hide)\u000a    (49 F.Fab user hide)\u000a  )\u000a\u000a  (setup\u000a    (last_trace_width 0.25)\u000a    (user_trace_width 0.35)\u000a    (user_trace_width 0.4)\u000a    (user_trace_width 0.5)\u000a    (trace_clearance 0.2)\u000a    (zone_clearance 0.508)\u000a    (zone_45_only no)\u000a    (trace_min 0.2)\u000a    (via_size 0.8)\u000a    (via_drill 0.4)\u000a    (via_min_size 0.4)\u000a    (via_min_drill 0.3)\u000a    (uvia_size 0.3)\u000a    (uvia_drill 0.1)\u000a    (uvias_allowed no)\u000a    (uvia_min_size 0.2)\u000a    (uvia_min_drill 0.1)\u000a    (edge_width 0.05)\u000a    (segment_width 0.2)\u000a    (pcb_text_width 0.3)\u000a    (pcb_text_size 1.5 1.5)\u000a    (mod_edge_width 0.12)\u000a    (mod_text_size 1 1)\u000a    (mod_text_width 0.15)\u000a    (pad_size 1.524 1.524)\u000a    (pad_drill 0.762)\u000a    (pad_to_mask_clearance 0)\u000a    (aux_axis_origin 0 0)\u000a    (visible_elements FFFFFF7F)\u000a    (pcbplotparams\u000a      (layerselection 0x010fc_ffffffff)\u000a      (usegerberextensions false)\u000a      (usegerberattributes true)\u000a      (usegerberadvancedattributes true)\u000a      (creategerberjobfile true)\u000a      (excludeedgelayer true)\u000a      (linewidth 0.100000)\u000a      (plotframeref false)\u000a      (viasonmask false)\u000a      (mode 1)\u000a      (useauxorigin false)\u000a      (hpglpennumber 1)\u000a      (hpglpenspeed 20)\u000a      (hpglpendiameter 15.000000)\u000a      (psnegative false)\u000a      (psa4output false)\u000a      (plotreference true)\u000a      (plotvalue true)\u000a      (plotinvisibletext false)\u000a      (padsonsilk false)\u000a      (subtractmaskfromsilk false)\u000a      (outputformat 1)\u000a      (mirror false)\u000a      (drillshape 0)\u000a      (scaleselection 1)\u000a      (outputdirectory ""))\u000a  )\u000a\u000a  (net 0 "")\u000a  (net 1 "Net-(D1-Pad2)")\u000a  (net 2 /SINGLE-KEY/ROW)\u000a  (net 3 /SINGLE-KEY/COL)\u000a  (net 4 /SINGLE-KEY/VCC)\u000a  (net 5 /SINGLE-KEY/DI)\u000a  (net 6 /SINGLE-KEY/GND)\u000a  (net 7 /SINGLE-KEY/DO)\u000a\u000a  (net_class Default "This is the default net class."\u000a    (clearance 0.2)\u000a    (trace_width 0.25)\u000a    (via_dia 0.8)\u000a    (via_drill 0.4)\u000a    (uvia_dia 0.3)\u000a    (uvia_drill 0.1)\u000a    (add_net /SINGLE-KEY/COL)\u000a    (add_net /SINGLE-KEY/DI)\u000a    (add_net /SINGLE-KEY/DO)\u000a    (add_net /SINGLE-KEY/GND)\u000a    (add_net /SINGLE-KEY/ROW)\u000a    (add_net /SINGLE-KEY/VCC)\u000a    (add_net "Net-(D1-Pad2)")\u000a  )\u000a\u000a  (module WingCustomParts:ws2812b-2020-2.0mmx2.0mm (layer F.Cu) (tedit 6147CC80) (tstamp 6149C997)\u000a    (at -89.69 -22.08 90)\u000a    (path /614FA8E6/61502E33)\u000a    (fp_text reference WS2 (at 2.92 -0.31 180) (layer F.SilkS)\u000a      (effects (font (size 1 1) (thickness 0.15)))\u000a    )\u000a    (fp_text value WS2812B-2020-JLCPCB (at 0 -20.5 90) (layer F.Fab)\u000a      (effects (font (size 1 1) (thickness 0.15)))\u000a    )\u000a    (fp_line (start 1.4 -1.1) (end 1.3 -1.1) (layer F.CrtYd) (width 0.02))\u000a    (fp_line (start 1.4 1.1) (end 1.4 -1.1) (layer F.CrtYd) (width 0.02))\u000a    (fp_line (start -1.4 1.1) (end 1.4 1.1) (layer F.CrtYd) (width 0.02))\u000a    (fp_line (start -1.4 -1.1) (end -1.4 1.1) (layer F.CrtYd) (width 0.02))\u000a    (fp_line (start 1.3 -1.1) (end -1.4 -1.1) (layer F.CrtYd) (width 0.02))\u000a    (fp_poly (pts (xy 0.55 1) (xy 0.35 1) (xy 0.35 -1) (xy 0.55 -1)) (layer Dwgs.User) (width 0.02))\u000a    (fp_line (start -0.55 1) (end 0.55 1) (layer Dwgs.User) (width 0.02))\u000a    (fp_line (start -0.55 -1) (end -0.55 1) (layer Dwgs.User) (width 0.02))\u000a    (fp_line (start 0.55 -1) (end -0.55 -1) (layer Dwgs.User) (width 0.02))\u000a    (fp_line (start 1.265 -0.2) (end 1.265 0.2) (layer Dwgs.User) (width 0.02))\u000a    (fp_line (start -1.265 -0.2) (end -1.265 0.2) (layer Dwgs.User) (width 0.02))\u000a    (fp_line (start 1.265 0.2) (end -1.265 0.2) (layer Dwgs.User) (width 0.02))\u000a    (fp_line (start 0.55 -1) (end 0.55 1) (layer Dwgs.User) (width 0.02))\u000a    (fp_line (start -1.265 -0.2) (end 1.265 -0.2) (layer Dwgs.User) (width 0.02))\u000a    (pad 4 smd rect (at -0.92 0.56 270) (size 0.7 0.7) (layers F.Cu F.Paste F.Mask)\u000a      (net 4 /SINGLE-KEY/VCC))\u000a    (pad 3 smd rect (at -0.92 -0.56 270) (size 0.7 0.7) (layers F.Cu F.Paste F.Mask)\u000a      (net 5 /SINGLE-KEY/DI))\u000a    (pad 2 smd rect (at 0.92 -0.56 270) (size 0.7 0.7) (layers F.Cu F.Paste F.Mask)\u000a      (net 6 /SINGLE-KEY/GND))\u000a    (pad 1 smd rect (at 0.92 0.56 270) (size 0.7 0.7) (layers F.Cu F.Paste F.Mask)\u000a      (net 7 /SINGLE-KEY/DO))\u000a  )\u000a\u000a  (module keyswitches:Kailh_socket_PG1350_reversible (layer F.Cu) (tedit 5DD510DD) (tstamp 6149CCB9)\u000a    (at -85 -21.5 90)\u000a    (descr "Kailh \u005c"Choc\u005c" PG1350 keyswitch reversible socket mount")\u000a    (tags kailh,choc)\u000a    (path /614FA8E6/61502D63)\u000a    (attr smd)\u000a    (fp_text reference KSW1 (at 4.445 -1.905 90) (layer F.SilkS)\u000a      (effects (font (size 1 1) (thickness 0.15)))\u000a    )\u000a    (fp_text value Kailh-Switch (at 0 8.89 90) (layer F.Fab)\u000a      (effects (font (size 1 1) (thickness 0.15)))\u000a    )\u000a    (fp_line (start -7.5 7.5) (end -7.5 -7.5) (layer F.Fab) (width 0.15))\u000a    (fp_line (start 7.5 7.5) (end -7.5 7.5) (layer F.Fab) (width 0.15))\u000a    (fp_line (start 7.5 -7.5) (end 7.5 7.5) (layer F.Fab) (width 0.15))\u000a    (fp_line (start -7.5 -7.5) (end 7.5 -7.5) (layer F.Fab) (width 0.15))\u000a    (fp_line (start 7 5) (end 9.5 5) (layer F.Fab) (width 0.12))\u000a    (fp_line (start 7 1.5) (end 7 6.2) (layer F.Fab) (width 0.12))\u000a    (fp_line (start -1.5 8.2) (end 1.5 8.2) (layer F.Fab) (width 0.15))\u000a    (fp_line (start -2 7.7) (end -1.5 8.2) (layer F.Fab) (width 0.15))\u000a    (fp_line (start -1.5 3.7) (end 1 3.7) (layer F.Fab) (width 0.15))\u000a    (fp_line (start -2 4.2) (end -1.5 3.7) (layer F.Fab) (width 0.15))\u000a    (fp_line (start 7 6.2) (end 2.5 6.2) (layer F.Fab) (width 0.15))\u000a    (fp_line (start 2 6.7) (end 2 7.7) (layer F.Fab) (width 0.15))\u000a    (fp_line (start 1.5 8.2) (end 2 7.7) (layer F.Fab) (width 0.15))\u000a    (fp_line (start 2.5 1.5) (end 7 1.5) (layer F.Fab) (width 0.15))\u000a    (fp_line (start 2.5 2.2) (end 2.5 1.5) (layer F.Fab) (width 0.15))\u000a    (fp_line (start -2 4.25) (end -2 7.7) (layer F.Fab) (width 0.12))\u000a    (fp_line (start 9.5 5) (end 9.5 2.5) (layer F.Fab) (width 0.12))\u000a    (fp_line (start -4.5 7.25) (end -2 7.25) (layer F.Fab) (width 0.12))\u000a    (fp_line (start -4.5 4.75) (end -4.5 7.25) (layer F.Fab) (width 0.12))\u000a    (fp_line (start -2 4.75) (end -4.5 4.75) (layer F.Fab) (width 0.12))\u000a    (fp_line (start 9.5 2.5) (end 7 2.5) (layer F.Fab) (width 0.12))\u000a    (fp_line (start -7 5) (end -9.5 5) (layer B.Fab) (width 0.12))\u000a    (fp_line (start -7 1.5) (end -7 6.2) (layer B.Fab) (width 0.12))\u000a    (fp_line (start 1.5 8.2) (end -1.5 8.2) (layer B.Fab) (width 0.15))\u000a    (fp_line (start 2 7.7) (end 1.5 8.2) (layer B.Fab) (width 0.15))\u000a    (fp_line (start 1.5 3.7) (end -1 3.7) (layer B.Fab) (width 0.15))\u000a    (fp_line (start 2 4.2) (end 1.5 3.7) (layer B.Fab) (width 0.15))\u000a    (fp_line (start -7 6.2) (end -2.5 6.2) (layer B.Fab) (width 0.15))\u000a    (fp_line (start -2 6.7) (end -2 7.7) (layer B.Fab) (width 0.15))\u000a    (fp_line (start -1.5 8.2) (end -2 7.7) (layer B.Fab) (width 0.15))\u000a    (fp_line (start -2.5 1.5) (end -7 1.5) (layer B.Fab) (width 0.15))\u000a    (fp_line (start -2.5 2.2) (end -2.5 1.5) (layer B.Fab) (width 0.15))\u000a    (fp_line (start 2 4.25) (end 2 7.7) (layer B.Fab) (width 0.12))\u000a    (fp_line (start -9.5 5) (end -9.5 2.5) (layer B.Fab) (width 0.12))\u000a    (fp_line (start 4.5 7.25) (end 2 7.25) (layer B.Fab) (width 0.12))\u000a    (fp_line (start 4.5 4.75) (end 4.5 7.25) (layer B.Fab) (width 0.12))\u000a    (fp_line (start 2 4.75) (end 4.5 4.75) (layer B.Fab) (width 0.12))\u000a    (fp_line (start -9.5 2.5) (end -7 2.5) (layer B.Fab) (width 0.12))\u000a    (fp_line (start 2.5 2.2) (end 2.5 1.5) (layer F.SilkS) (width 0.15))\u000a    (fp_line (start 2.5 1.5) (end 7 1.5) (layer F.SilkS) (width 0.15))\u000a    (fp_line (start 1.5 8.2) (end 2 7.7) (layer F.SilkS) (width 0.15))\u000a    (fp_line (start 2 6.7) (end 2 7.7) (layer F.SilkS) (width 0.15))\u000a    (fp_line (start 7 6.2) (end 2.5 6.2) (layer F.SilkS) (width 0.15))\u000a    (fp_line (start -2 4.2) (end -1.5 3.7) (layer F.SilkS) (width 0.15))\u000a    (fp_line (start 7 5.6) (end 7 6.2) (layer F.SilkS) (width 0.15))\u000a    (fp_line (start -1.5 3.7) (end 1 3.7) (layer F.SilkS) (width 0.15))\u000a    (fp_line (start -2 7.7) (end -1.5 8.2) (layer F.SilkS) (width 0.15))\u000a    (fp_line (start -1.5 8.2) (end 1.5 8.2) (layer F.SilkS) (width 0.15))\u000a    (fp_line (start 7 1.5) (end 7 2) (layer F.SilkS) (width 0.15))\u000a    (fp_line (start -2.5 2.2) (end -2.5 1.5) (layer B.SilkS) (width 0.15))\u000a    (fp_line (start -2.5 1.5) (end -7 1.5) (layer B.SilkS) (width 0.15))\u000a    (fp_line (start -1.5 8.2) (end -2 7.7) (layer B.SilkS) (width 0.15))\u000a    (fp_line (start -2 6.7) (end -2 7.7) (layer B.SilkS) (width 0.15))\u000a    (fp_line (start -7 6.2) (end -2.5 6.2) (layer B.SilkS) (width 0.15))\u000a    (fp_line (start 2 4.2) (end 1.5 3.7) (layer B.SilkS) (width 0.15))\u000a    (fp_line (start -7 5.6) (end -7 6.2) (layer B.SilkS) (width 0.15))\u000a    (fp_line (start 1.5 3.7) (end -1 3.7) (layer B.SilkS) (width 0.15))\u000a    (fp_line (start 2 7.7) (end 1.5 8.2) (layer B.SilkS) (width 0.15))\u000a    (fp_line (start 1.5 8.2) (end -1.5 8.2) (layer B.SilkS) (width 0.15))\u000a    (fp_line (start -7 1.5) (end -7 2) (layer B.SilkS) (width 0.15))\u000a    (fp_line (start -7 7) (end -7 6) (layer F.SilkS) (width 0.15))\u000a    (fp_line (start -6 7) (end -7 7) (layer B.SilkS) (width 0.15))\u000a    (fp_line (start 7 7) (end 6 7) (layer B.SilkS) (width 0.15))\u000a    (fp_line (start 7 6) (end 7 7) (layer B.SilkS) (width 0.15))\u000a    (fp_line (start 7 -7) (end 7 -6) (layer B.SilkS) (width 0.15))\u000a    (fp_line (start 6 -7) (end 7 -7) (layer B.SilkS) (width 0.15))\u000a    (fp_line (start -7 -7) (end -6 -7) (layer F.SilkS) (width 0.15))\u000a    (fp_line (start -7 -6) (end -7 -7) (layer B.SilkS) (width 0.15))\u000a    (fp_line (start -7.5 7.5) (end -7.5 -7.5) (layer B.Fab) (width 0.15))\u000a    (fp_line (start 7.5 7.5) (end -7.5 7.5) (layer B.Fab) (width 0.15))\u000a    (fp_line (start 7.5 -7.5) (end 7.5 7.5) (layer B.Fab) (width 0.15))\u000a    (fp_line (start -7.5 -7.5) (end 7.5 -7.5) (layer B.Fab) (width 0.15))\u000a    (fp_line (start -6.9 6.9) (end -6.9 -6.9) (layer Eco2.User) (width 0.15))\u000a    (fp_line (start 6.9 -6.9) (end 6.9 6.9) (layer Eco2.User) (width 0.15))\u000a    (fp_line (start 6.9 -6.9) (end -6.9 -6.9) (layer Eco2.User) (width 0.15))\u000a    (fp_line (start -6.9 6.9) (end 6.9 6.9) (layer Eco2.User) (width 0.15))\u000a    (fp_line (start 7 -7) (end 7 -6) (layer F.SilkS) (width 0.15))\u000a    (fp_line (start 6 -7) (end 7 -7) (layer F.SilkS) (width 0.15))\u000a    (fp_line (start 7 7) (end 6 7) (layer F.SilkS) (width 0.15))\u000a    (fp_line (start 7 6) (end 7 7) (layer F.SilkS) (width 0.15))\u000a    (fp_line (start -7 7) (end -7 6) (layer B.SilkS) (width 0.15))\u000a    (fp_line (start -6 7) (end -7 7) (layer F.SilkS) (width 0.15))\u000a    (fp_line (start -7 -7) (end -6 -7) (layer B.SilkS) (width 0.15))\u000a    (fp_line (start -7 -6) (end -7 -7) (layer F.SilkS) (width 0.15))\u000a    (fp_line (start -2.6 -3.1) (end -2.6 -6.3) (layer Eco2.User) (width 0.15))\u000a    (fp_line (start 2.6 -6.3) (end -2.6 -6.3) (layer Eco2.User) (width 0.15))\u000a    (fp_line (start 2.6 -3.1) (end 2.6 -6.3) (layer Eco2.User) (width 0.15))\u000a    (fp_line (start -2.6 -3.1) (end 2.6 -3.1) (layer Eco2.User) (width 0.15))\u000a    (fp_text user %R (at -4.445 -1.905 90) (layer B.SilkS)\u000a      (effects (font (size 1 1) (thickness 0.15)) (justify mirror))\u000a    )\u000a    (fp_text user %V (at 0 8.89 90) (layer B.Fab)\u000a      (effects (font (size 1 1) (thickness 0.15)) (justify mirror))\u000a    )\u000a    (fp_text user %R (at 3 5 270) (layer F.Fab)\u000a      (effects (font (size 1 1) (thickness 0.15)))\u000a    )\u000a    (fp_arc (start 2.5 6.7) (end 2 6.7) (angle 90) (layer F.Fab) (width 0.15))\u000a    (fp_arc (start 1 2.2) (end 2.5 2.2) (angle 90) (layer F.Fab) (width 0.15))\u000a    (fp_text user %R (at -3 5 90) (layer B.Fab)\u000a      (effects (font (size 1 1) (thickness 0.15)) (justify mirror))\u000a    )\u000a    (fp_arc (start -2.5 6.7) (end -2 6.7) (angle -90) (layer B.Fab) (width 0.15))\u000a    (fp_arc (start -1 2.2) (end -2.5 2.2) (angle -90) (layer B.Fab) (width 0.15))\u000a    (fp_arc (start 1 2.2) (end 2.5 2.2) (angle 90) (layer F.SilkS) (width 0.15))\u000a    (fp_arc (start 2.5 6.7) (end 2 6.7) (angle 90) (layer F.SilkS) (width 0.15))\u000a    (fp_arc (start -1 2.2) (end -2.5 2.2) (angle -90) (layer B.SilkS) (width 0.15))\u000a    (fp_arc (start -2.5 6.7) (end -2 6.7) (angle -90) (layer B.SilkS) (width 0.15))\u000a    (pad "" np_thru_hole circle (at -5.5 0 90) (size 1.7018 1.7018) (drill 1.7018) (layers *.Cu *.Mask))\u000a    (pad "" np_thru_hole circle (at 5.5 0 90) (size 1.7018 1.7018) (drill 1.7018) (layers *.Cu *.Mask))\u000a    (pad 1 smd rect (at -3.275 5.95 90) (size 2.6 2.6) (layers F.Cu F.Paste F.Mask)\u000a      (net 1 "Net-(D1-Pad2)"))\u000a    (pad "" np_thru_hole circle (at 5 3.75 90) (size 3 3) (drill 3) (layers *.Cu *.Mask))\u000a    (pad "" np_thru_hole circle (at 0 0 90) (size 3.429 3.429) (drill 3.429) (layers *.Cu *.Mask))\u000a    (pad "" np_thru_hole circle (at 0 5.95 90) (size 3 3) (drill 3) (layers *.Cu *.Mask))\u000a    (pad 2 smd rect (at 8.275 3.75 90) (size 2.6 2.6) (layers F.Cu F.Paste F.Mask)\u000a      (net 3 /SINGLE-KEY/COL))\u000a    (pad "" np_thru_hole circle (at -5 3.75 90) (size 3 3) (drill 3) (layers *.Cu *.Mask))\u000a    (pad 1 smd rect (at 3.275 5.95 90) (size 2.6 2.6) (layers B.Cu B.Paste B.Mask)\u000a      (net 1 "Net-(D1-Pad2)"))\u000a    (pad 2 smd rect (at -8.275 3.75 90) (size 2.6 2.6) (layers B.Cu B.Paste B.Mask)\u000a      (net 3 /SINGLE-KEY/COL))\u000a    (pad "" np_thru_hole circle (at -5.22 -4.2 90) (size 0.9906 0.9906) (drill 0.9906) (layers *.Cu *.Mask))\u000a    (pad "" np_thru_hole circle (at 5.22 -4.2 90) (size 0.9906 0.9906) (drill 0.9906) (layers *.Cu *.Mask))\u000a  )\u000a\u000a  (module Diode_SMD:D_0402_1005Metric_Pad0.77x0.64mm_HandSolder (layer F.Cu) (tedit 5F6BBBDD) (tstamp 6149C77B)\u000a    (at -89.6775 -19.75)\u000a    (descr "Diode SMD 0402 (1005 Metric), square (rectangular) end terminal, IPC_7351 nominal, (Body size source: http://www.tortai-tech.com/upload/download/2011102023233369053.pdf), generated with kicad-footprint-generator")\u000a    (tags "diode handsolder")\u000a    (path /614FA8E6/61502DA1)\u000a    (attr smd)\u000a    (fp_text reference D1 (at 0 -1.17) (layer F.SilkS)\u000a      (effects (font (size 1 1) (thickness 0.15)))\u000a    )\u000a    (fp_text value D (at 0 1.17) (layer F.Fab)\u000a      (effects (font (size 1 1) (thickness 0.15)))\u000a    )\u000a    (fp_line (start 1.1 0.47) (end -1.1 0.47) (layer F.CrtYd) (width 0.05))\u000a    (fp_line (start 1.1 -0.47) (end 1.1 0.47) (layer F.CrtYd) (width 0.05))\u000a    (fp_line (start -1.1 -0.47) (end 1.1 -0.47) (layer F.CrtYd) (width 0.05))\u000a    (fp_line (start -1.1 0.47) (end -1.1 -0.47) (layer F.CrtYd) (width 0.05))\u000a    (fp_line (start -0.3 0.25) (end -0.3 -0.25) (layer F.Fab) (width 0.1))\u000a    (fp_line (start -0.4 0.25) (end -0.4 -0.25) (layer F.Fab) (width 0.1))\u000a    (fp_line (start 0.5 0.25) (end -0.5 0.25) (layer F.Fab) (width 0.1))\u000a    (fp_line (start 0.5 -0.25) (end 0.5 0.25) (layer F.Fab) (width 0.1))\u000a    (fp_line (start -0.5 -0.25) (end 0.5 -0.25) (layer F.Fab) (width 0.1))\u000a    (fp_line (start -0.5 0.25) (end -0.5 -0.25) (layer F.Fab) (width 0.1))\u000a    (fp_circle (center -1.265 0) (end -1.215 0) (layer F.SilkS) (width 0.1))\u000a    (fp_text user %R (at 0 0) (layer F.Fab)\u000a      (effects (font (size 0.25 0.25) (thickness 0.04)))\u000a    )\u000a    (pad 2 smd roundrect (at 0.5725 0) (size 0.765 0.64) (layers F.Cu F.Paste F.Mask) (roundrect_rratio 0.25)\u000a      (net 1 "Net-(D1-Pad2)"))\u000a    (pad 1 smd roundrect (at -0.5725 0) (size 0.765 0.64) (layers F.Cu F.Paste F.Mask) (roundrect_rratio 0.25)\u000a      (net 2 /SINGLE-KEY/ROW))\u000a    (model ${KISYS3DMOD}/Diode_SMD.3dshapes/D_0402_1005Metric.wrl\u000a      (at (xyz 0 0 0))\u000a      (scale (xyz 1 1 1))\u000a      (rotate (xyz 0 0 0))\u000a    )\u000a  )\u000a\u000a  (segment (start -89.105 -19.75) (end -87.25 -19.75) (width 0.5) (layer F.Cu) (net 1))\u000a  (segment (start -87.25 -19.75) (end -86.25 -18.75) (width 0.5) (layer F.Cu) (net 1))\u000a  (segment (start -79.575 -18.75) (end -79.05 -18.225) (width 0.5) (layer F.Cu) (net 1))\u000a  (segment (start -79.05 -24.775) (end -79.725 -24.775) (width 0.5) (layer B.Cu) (net 1))\u000a  (via (at -82 -19.75) (size 0.8) (drill 0.4) (layers F.Cu B.Cu) (net 1))\u000a  (segment (start -82 -22.5) (end -82 -19.75) (width 0.5) (layer B.Cu) (net 1))\u000a  (segment (start -79.725 -24.775) (end -82 -22.5) (width 0.5) (layer B.Cu) (net 1))\u000a  (segment (start -82 -19) (end -82.25 -18.75) (width 0.5) (layer F.Cu) (net 1))\u000a  (segment (start -82 -19.75) (end -82 -19) (width 0.5) (layer F.Cu) (net 1))\u000a  (segment (start -82.25 -18.75) (end -79.575 -18.75) (width 0.5) (layer F.Cu) (net 1))\u000a  (segment (start -86.25 -18.75) (end -82.25 -18.75) (width 0.5) (layer F.Cu) (net 1))\u000a  (segment (start -84.508002 -24.5) (end -83.108011 -23.100009) (width 0.5) (layer F.Cu) (net 2))\u000a  (segment (start -92 -24.5) (end -91.75 -24.5) (width 0.5) (layer F.Cu) (net 2))\u000a  (segment (start -92.25 -24.5) (end -91.75 -24.5) (width 0.5) (layer F.Cu) (net 2))\u000a  (segment (start -91.75 -24.5) (end -84.508002 -24.5) (width 0.5) (layer F.Cu) (net 2))\u000a  (segment (start -83.108011 -23.100009) (end -83.100009 -23.100009) (width 0.5) (layer F.Cu) (net 2))\u000a  (segment (start -83.100009 -23.100009) (end -82.5 -22.5) (width 0.5) (layer F.Cu) (net 2))\u000a  (segment (start -82.5 -22.5) (end -81.5 -22.5) (width 0.5) (layer F.Cu) (net 2))\u000a  (segment (start -79.875 -24.125) (end -78.125 -24.125) (width 0.5) (layer F.Cu) (net 2))\u000a  (segment (start -81.5 -22.5) (end -79.875 -24.125) (width 0.5) (layer F.Cu) (net 2))\u000a  (segment (start -77 -23) (end -78.125 -24.125) (width 0.5) (layer F.Cu) (net 2))\u000a  (via (at -92 -19) (size 0.8) (drill 0.4) (layers F.Cu B.Cu) (net 2))\u000a  (segment (start -92 -19.75) (end -92 -19) (width 0.5) (layer F.Cu) (net 2))\u000a  (segment (start -90.25 -19.75) (end -92 -19.75) (width 0.5) (layer F.Cu) (net 2))\u000a  (segment (start -92 -19.75) (end -92.25 -19.75) (width 0.5) (layer F.Cu) (net 2))\u000a  (via (at -92 -18) (size 0.8) (drill 0.4) (layers F.Cu B.Cu) (net 2))\u000a  (segment (start -92 -19) (end -92 -18) (width 0.5) (layer B.Cu) (net 2))\u000a  (segment (start -92 -18) (end -92 -15.25) (width 0.5) (layer F.Cu) (net 2))\u000a  (via (at -92 -26) (size 0.8) (drill 0.4) (layers F.Cu B.Cu) (net 2))\u000a  (segment (start -92 -27.5) (end -92 -26) (width 0.5) (layer F.Cu) (net 2))\u000a  (via (at -92 -24.5) (size 0.8) (drill 0.4) (layers F.Cu B.Cu) (net 2))\u000a  (segment (start -92 -26) (end -92 -24.5) (width 0.5) (layer B.Cu) (net 2))\u000a  (segment (start -77 -15.5) (end -77 -23) (width 0.5) (layer B.Cu) (net 2))\u000a  (segment (start -77 -23) (end -77 -27.5) (width 0.5) (layer B.Cu) (net 2))\u000a  (segment (start -80.525 -12.5) (end -81.25 -13.225) (width 0.5) (layer B.Cu) (net 3))\u000a  (segment (start -82.6375 -14.6125) (end -83.200001 -15.175001) (width 0.5) (layer B.Cu) (net 3))\u000a  (segment (start -81.25 -13.225) (end -82.6375 -14.6125) (width 0.5) (layer B.Cu) (net 3))\u000a  (segment (start -79.975 -28.5) (end -81.25 -29.775) (width 0.5) (layer F.Cu) (net 3))\u000a  (segment (start -79.299999 -17.436001) (end -79.299999 -14.950001) (width 0.5) (layer B.Cu) (net 3))\u000a  (segment (start -80.313999 -18.450001) (end -79.299999 -17.436001) (width 0.5) (layer B.Cu) (net 3))\u000a  (segment (start -79.299999 -14.950001) (end -79.5 -14.75) (width 0.5) (layer B.Cu) (net 3))\u000a  (segment (start -82.186001 -18.450001) (end -80.313999 -18.450001) (width 0.5) (layer B.Cu) (net 3))\u000a  (segment (start -82.436001 -18.200001) (end -82.186001 -18.450001) (width 0.5) (layer B.Cu) (net 3))\u000a  (segment (start -83.200001 -18.200001) (end -82.436001 -18.200001) (width 0.5) (layer B.Cu) (net 3))\u000a  (segment (start -83.200001 -15.175001) (end -83.200001 -18.200001) (width 0.5) (layer B.Cu) (net 3))\u000a  (segment (start -79.5 -14.75) (end -80.113998 -14.75) (width 0.5) (layer B.Cu) (net 3))\u000a  (segment (start -78 -14.75) (end -79.5 -14.75) (width 0.5) (layer B.Cu) (net 3))\u000a  (segment (start -82.70001 -20.307992) (end -82.70001 -24.45001) (width 0.5) (layer B.Cu) (net 3))\u000a  (segment (start -83.200001 -19.808001) (end -82.70001 -20.307992) (width 0.5) (layer B.Cu) (net 3))\u000a  (segment (start -83.200001 -24.950001) (end -83.200001 -28.549999) (width 0.5) (layer B.Cu) (net 3))\u000a  (segment (start -82.70001 -24.45001) (end -83.200001 -24.950001) (width 0.5) (layer B.Cu) (net 3))\u000a  (segment (start -83.200001 -18.200001) (end -83.200001 -19.808001) (width 0.5) (layer B.Cu) (net 3))\u000a  (via (at -83.200001 -28.549999) (size 0.8) (drill 0.4) (layers F.Cu B.Cu) (net 3))\u000a  (segment (start -78 -14.75) (end -78 -12.25) (width 0.5) (layer B.Cu) (net 3))\u000a  (segment (start -81.25 -13.613998) (end -80.113998 -14.75) (width 0.5) (layer B.Cu) (net 3))\u000a  (segment (start -81.25 -13.225) (end -81.25 -13.613998) (width 0.5) (layer B.Cu) (net 3))\u000a  (segment (start -83.200001 -28.549999) (end -85.200001 -28.549999) (width 0.5) (layer F.Cu) (net 3))\u000a  (segment (start -85.200001 -28.549999) (end -91.700001 -28.549999) (width 0.5) (layer F.Cu) (net 3))\u000a  (segment (start -83.150002 -28.5) (end -83.200001 -28.549999) (width 0.5) (layer F.Cu) (net 3))\u000a  (segment (start -79.25 -28.5) (end -83.150002 -28.5) (width 0.5) (layer F.Cu) (net 3))\u000a  (segment (start -79.25 -28.5) (end -79.975 -28.5) (width 0.5) (layer F.Cu) (net 3))\u000a  (segment (start -78 -28.5) (end -79.25 -28.5) (width 0.5) (layer F.Cu) (net 3))\u000a  (segment (start -78 -30.75) (end -78 -28.5) (width 0.5) (layer F.Cu) (net 3))\u000a  (segment (start -91.75 -30.75) (end -79 -30.75) (width 0.5) (layer F.Cu) (net 3))\u000a  (segment (start -91.75 -28.599998) (end -91.700001 -28.549999) (width 0.5) (layer F.Cu) (net 3))\u000a  (segment (start -91.75 -30.75) (end -91.75 -28.599998) (width 0.5) (layer F.Cu) (net 3))\u000a  (segment (start -91.5 -14.475) (end -91.3625 -14.6125) (width 0.5) (layer B.Cu) (net 3))\u000a  (segment (start -91.5 -12.25) (end -91.5 -14.475) (width 0.5) (layer B.Cu) (net 3))\u000a  (segment (start -82.6375 -14.6125) (end -91.3625 -14.6125) (width 0.5) (layer B.Cu) (net 3))\u000a  (segment (start -91.5 -12.25) (end -85 -12.25) (width 0.5) (layer B.Cu) (net 3))\u000a  (segment (start -79 -30.75) (end -78 -30.75) (width 0.5) (layer F.Cu) (net 3) (tstamp 6149F077))\u000a  (segment (start -85 -12.25) (end -78 -12.25) (width 0.5) (layer B.Cu) (net 3) (tstamp 6149F07D))\u000a  (via (at -87.75 -21) (size 0.8) (drill 0.4) (layers F.Cu B.Cu) (net 4))\u000a  (segment (start -87.91 -21.16) (end -87.75 -21) (width 0.5) (layer F.Cu) (net 4))\u000a  (segment (start -89.13 -21.16) (end -87.91 -21.16) (width 0.5) (layer F.Cu) (net 4))\u000a  (via (at -86 -17.75) (size 0.8) (drill 0.4) (layers F.Cu B.Cu) (net 4))\u000a  (segment (start -87.75 -19.5) (end -86 -17.75) (width 0.5) (layer B.Cu) (net 4))\u000a  (segment (start -87.75 -21) (end -87.75 -19.5) (width 0.5) (layer B.Cu) (net 4))\u000a  (segment (start -83.200001 -15.563999) (end -82.186001 -14.549999) (width 0.5) (layer F.Cu) (net 4))\u000a  (segment (start -82.186001 -14.549999) (end -79.314999 -14.549999) (width 0.5) (layer F.Cu) (net 4))\u000a  (segment (start -84.824666 -17.75) (end -83.200001 -16.125335) (width 0.5) (layer F.Cu) (net 4))\u000a  (segment (start -83.200001 -16.125335) (end -83.200001 -15.563999) (width 0.5) (layer F.Cu) (net 4))\u000a  (segment (start -86 -17.75) (end -84.824666 -17.75) (width 0.5) (layer F.Cu) (net 4))\u000a  (via (at -91.5 -21.25) (size 0.8) (drill 0.4) (layers F.Cu B.Cu) (net 5))\u000a  (segment (start -91.41 -21.16) (end -91.5 -21.25) (width 0.5) (layer F.Cu) (net 5))\u000a  (segment (start -90.25 -21.16) (end -91.41 -21.16) (width 0.5) (layer F.Cu) (net 5))\u000a  (segment (start -91.5 -21.25) (end -87.75 -17.5) (width 0.5) (layer B.Cu) (net 5))\u000a  (via (at -87.75 -16.75) (size 0.8) (drill 0.4) (layers F.Cu B.Cu) (net 5))\u000a  (segment (start -87.75 -17.5) (end -87.75 -16.75) (width 0.5) (layer B.Cu) (net 5))\u000a  (via (at -91.5 -23) (size 0.8) (drill 0.4) (layers F.Cu B.Cu) (net 6))\u000a  (segment (start -90.25 -23) (end -91.5 -23) (width 0.5) (layer F.Cu) (net 6))\u000a  (via (at -87.75 -23) (size 0.8) (drill 0.4) (layers F.Cu B.Cu) (net 7))\u000a  (segment (start -89.13 -23) (end -87.75 -23) (width 0.5) (layer F.Cu) (net 7))\u000a\u000a)\u000a
p3
S'ad18cd9da838cb320147bd1f5a7c74b1'
p4
(dp5
V614FA8E6
p6
(lp7
VSINGLE-KEY
p8
aVSINGLE-KEY.sch
p9
as(lp10
V/SINGLE-KEY/VCC
p11
aV/SINGLE-KEY/DI
p12
aV/SINGLE-KEY/GND
p13
aV/SINGLE-KEY/DO
p14
aV
p15
aVNet-(D1-Pad2)
p16
aV/SINGLE-KEY/COL
p17
aV/SINGLE-KEY/ROW
p18
a(lp19
g8
a(lp20
g9
atp21
tp22
Rp23
.